ARM GAS  C:\Users\ACER\AppData\Local\Temp\ccImKfKw.s 			page 1


   1              		.cpu cortex-m4
   2              		.arch armv7e-m
   3              		.fpu fpv4-sp-d16
   4              		.eabi_attribute 27, 1
   5              		.eabi_attribute 28, 1
   6              		.eabi_attribute 20, 1
   7              		.eabi_attribute 21, 1
   8              		.eabi_attribute 23, 3
   9              		.eabi_attribute 24, 1
  10              		.eabi_attribute 25, 1
  11              		.eabi_attribute 26, 1
  12              		.eabi_attribute 30, 1
  13              		.eabi_attribute 34, 1
  14              		.eabi_attribute 18, 4
  15              		.file	"active_object.c"
  16              		.text
  17              	.Ltext0:
  18              		.cfi_sections	.debug_frame
  19              		.file 1 "Core/Src/Middleware/Active_Object/active_object.c"
  20              		.section	.text.init,"ax",%progbits
  21              		.align	1
  22              		.syntax unified
  23              		.thumb
  24              		.thumb_func
  26              	init:
  27              	.LVL0:
  28              	.LFB135:
   1:Core/Src/Middleware/Active_Object/active_object.c **** #include "active_object.h"
   2:Core/Src/Middleware/Active_Object/active_object.c **** 
   3:Core/Src/Middleware/Active_Object/active_object.c **** static void init(struct Ao * const self, Event const * const event)
   4:Core/Src/Middleware/Active_Object/active_object.c **** {
  29              		.loc 1 4 1 view -0
  30              		.cfi_startproc
  31              		@ args = 0, pretend = 0, frame = 0
  32              		@ frame_needed = 0, uses_anonymous_args = 0
  33              		.loc 1 4 1 is_stmt 0 view .LVU1
  34 0000 10B5     		push	{r4, lr}
  35              	.LCFI0:
  36              		.cfi_def_cfa_offset 8
  37              		.cfi_offset 4, -8
  38              		.cfi_offset 14, -4
  39 0002 0446     		mov	r4, r0
   5:Core/Src/Middleware/Active_Object/active_object.c ****     static Event const entry_evt = {.signal = ENTRY_SIG};
  40              		.loc 1 5 5 is_stmt 1 view .LVU2
   6:Core/Src/Middleware/Active_Object/active_object.c ****     (*self->handler)(self, event);
  41              		.loc 1 6 5 view .LVU3
  42              		.loc 1 6 6 is_stmt 0 view .LVU4
  43 0004 0368     		ldr	r3, [r0]
  44 0006 9847     		blx	r3
  45              	.LVL1:
   7:Core/Src/Middleware/Active_Object/active_object.c ****     (*self->handler)(self, &entry_evt);
  46              		.loc 1 7 5 is_stmt 1 view .LVU5
  47              		.loc 1 7 6 is_stmt 0 view .LVU6
  48 0008 2368     		ldr	r3, [r4]
  49 000a 0249     		ldr	r1, .L3
  50 000c 2046     		mov	r0, r4
  51 000e 9847     		blx	r3
ARM GAS  C:\Users\ACER\AppData\Local\Temp\ccImKfKw.s 			page 2


  52              	.LVL2:
   8:Core/Src/Middleware/Active_Object/active_object.c **** }
  53              		.loc 1 8 1 view .LVU7
  54 0010 10BD     		pop	{r4, pc}
  55              	.LVL3:
  56              	.L4:
  57              		.loc 1 8 1 view .LVU8
  58 0012 00BF     		.align	2
  59              	.L3:
  60 0014 00000000 		.word	entry_evt.0
  61              		.cfi_endproc
  62              	.LFE135:
  64              		.section	.text.dispatch,"ax",%progbits
  65              		.align	1
  66              		.syntax unified
  67              		.thumb
  68              		.thumb_func
  70              	dispatch:
  71              	.LVL4:
  72              	.LFB136:
   9:Core/Src/Middleware/Active_Object/active_object.c **** 
  10:Core/Src/Middleware/Active_Object/active_object.c **** static void dispatch(struct Ao * const self, Event const * const event)
  11:Core/Src/Middleware/Active_Object/active_object.c **** {
  73              		.loc 1 11 1 is_stmt 1 view -0
  74              		.cfi_startproc
  75              		@ args = 0, pretend = 0, frame = 0
  76              		@ frame_needed = 0, uses_anonymous_args = 0
  77              		.loc 1 11 1 is_stmt 0 view .LVU10
  78 0000 38B5     		push	{r3, r4, r5, lr}
  79              	.LCFI1:
  80              		.cfi_def_cfa_offset 16
  81              		.cfi_offset 3, -16
  82              		.cfi_offset 4, -12
  83              		.cfi_offset 5, -8
  84              		.cfi_offset 14, -4
  85 0002 0446     		mov	r4, r0
  12:Core/Src/Middleware/Active_Object/active_object.c ****     Status status;
  86              		.loc 1 12 5 is_stmt 1 view .LVU11
  13:Core/Src/Middleware/Active_Object/active_object.c ****     StateHandler prev_handler = self->handler;
  87              		.loc 1 13 5 view .LVU12
  88              		.loc 1 13 18 is_stmt 0 view .LVU13
  89 0004 0568     		ldr	r5, [r0]
  90              	.LVL5:
  14:Core/Src/Middleware/Active_Object/active_object.c ****     static Event const entry_evt = {.signal = ENTRY_SIG};
  91              		.loc 1 14 5 is_stmt 1 view .LVU14
  15:Core/Src/Middleware/Active_Object/active_object.c ****     static Event const exit_evt = {.signal = EXIT_SIG};
  92              		.loc 1 15 5 view .LVU15
  16:Core/Src/Middleware/Active_Object/active_object.c **** 
  17:Core/Src/Middleware/Active_Object/active_object.c ****     status = (*self->handler)(self, event);
  93              		.loc 1 17 5 view .LVU16
  94              		.loc 1 17 15 is_stmt 0 view .LVU17
  95 0006 A847     		blx	r5
  96              	.LVL6:
  18:Core/Src/Middleware/Active_Object/active_object.c ****     if(status == TRAN_STATUS)
  97              		.loc 1 18 5 is_stmt 1 view .LVU18
  98              		.loc 1 18 7 is_stmt 0 view .LVU19
  99 0008 30B9     		cbnz	r0, .L5
ARM GAS  C:\Users\ACER\AppData\Local\Temp\ccImKfKw.s 			page 3


  19:Core/Src/Middleware/Active_Object/active_object.c ****     {
  20:Core/Src/Middleware/Active_Object/active_object.c ****         (*prev_handler)(self, &exit_evt);
 100              		.loc 1 20 9 is_stmt 1 view .LVU20
 101              		.loc 1 20 10 is_stmt 0 view .LVU21
 102 000a 0449     		ldr	r1, .L8
 103 000c 2046     		mov	r0, r4
 104              	.LVL7:
 105              		.loc 1 20 10 view .LVU22
 106 000e A847     		blx	r5
 107              	.LVL8:
  21:Core/Src/Middleware/Active_Object/active_object.c ****         (*self->handler)(self, &entry_evt);
 108              		.loc 1 21 9 is_stmt 1 view .LVU23
 109              		.loc 1 21 10 is_stmt 0 view .LVU24
 110 0010 2368     		ldr	r3, [r4]
 111 0012 0349     		ldr	r1, .L8+4
 112 0014 2046     		mov	r0, r4
 113 0016 9847     		blx	r3
 114              	.LVL9:
 115              	.L5:
  22:Core/Src/Middleware/Active_Object/active_object.c ****     }
  23:Core/Src/Middleware/Active_Object/active_object.c **** }
 116              		.loc 1 23 1 view .LVU25
 117 0018 38BD     		pop	{r3, r4, r5, pc}
 118              	.LVL10:
 119              	.L9:
 120              		.loc 1 23 1 view .LVU26
 121 001a 00BF     		.align	2
 122              	.L8:
 123 001c 00000000 		.word	exit_evt.2
 124 0020 00000000 		.word	entry_evt.1
 125              		.cfi_endproc
 126              	.LFE136:
 128              		.section	.rodata.start.str1.4,"aMS",%progbits,1
 129              		.align	2
 130              	.LC0:
 131 0000 414F00   		.ascii	"AO\000"
 132              		.section	.text.start,"ax",%progbits
 133              		.align	1
 134              		.syntax unified
 135              		.thumb
 136              		.thumb_func
 138              	start:
 139              	.LVL11:
 140              	.LFB137:
  24:Core/Src/Middleware/Active_Object/active_object.c **** 
  25:Core/Src/Middleware/Active_Object/active_object.c **** static void start(struct Ao * const self,
  26:Core/Src/Middleware/Active_Object/active_object.c ****                   uint8_t prio,       /* priority (1-based) */
  27:Core/Src/Middleware/Active_Object/active_object.c ****                   uint32_t queueLen,
  28:Core/Src/Middleware/Active_Object/active_object.c ****                   uint32_t stackSize,
  29:Core/Src/Middleware/Active_Object/active_object.c ****                   uint16_t opt)
  30:Core/Src/Middleware/Active_Object/active_object.c **** {
 141              		.loc 1 30 1 is_stmt 1 view -0
 142              		.cfi_startproc
 143              		@ args = 4, pretend = 0, frame = 0
 144              		@ frame_needed = 0, uses_anonymous_args = 0
 145              		.loc 1 30 1 is_stmt 0 view .LVU28
 146 0000 70B5     		push	{r4, r5, r6, lr}
ARM GAS  C:\Users\ACER\AppData\Local\Temp\ccImKfKw.s 			page 4


 147              	.LCFI2:
 148              		.cfi_def_cfa_offset 16
 149              		.cfi_offset 4, -16
 150              		.cfi_offset 5, -12
 151              		.cfi_offset 6, -8
 152              		.cfi_offset 14, -4
 153 0002 82B0     		sub	sp, sp, #8
 154              	.LCFI3:
 155              		.cfi_def_cfa_offset 24
 156 0004 0446     		mov	r4, r0
 157 0006 0E46     		mov	r6, r1
 158 0008 1046     		mov	r0, r2
 159              	.LVL12:
  31:Core/Src/Middleware/Active_Object/active_object.c ****     uint32_t stk_depth = (stackSize / sizeof(StackType_t));
 160              		.loc 1 31 5 is_stmt 1 view .LVU29
 161              		.loc 1 31 14 is_stmt 0 view .LVU30
 162 000a 9D08     		lsrs	r5, r3, #2
 163              	.LVL13:
  32:Core/Src/Middleware/Active_Object/active_object.c ****     (void)opt; /* unused parameter */
 164              		.loc 1 32 5 is_stmt 1 view .LVU31
  33:Core/Src/Middleware/Active_Object/active_object.c ****     
  34:Core/Src/Middleware/Active_Object/active_object.c ****     self->queue = xQueueCreate(queueLen, sizeof(Event *));
 165              		.loc 1 34 5 view .LVU32
 166              		.loc 1 34 19 is_stmt 0 view .LVU33
 167 000c 0022     		movs	r2, #0
 168              	.LVL14:
 169              		.loc 1 34 19 view .LVU34
 170 000e 0421     		movs	r1, #4
 171              	.LVL15:
 172              		.loc 1 34 19 view .LVU35
 173 0010 FFF7FEFF 		bl	xQueueGenericCreate
 174              	.LVL16:
 175              		.loc 1 34 17 discriminator 1 view .LVU36
 176 0014 2066     		str	r0, [r4, #96]
  35:Core/Src/Middleware/Active_Object/active_object.c **** 
  36:Core/Src/Middleware/Active_Object/active_object.c ****     xTaskCreate(self->loopEvent, "AO", stk_depth, self, prio + tskIDLE_PRIORITY, &self->thread);
 177              		.loc 1 36 5 is_stmt 1 view .LVU37
 178 0016 231D     		adds	r3, r4, #4
 179 0018 0193     		str	r3, [sp, #4]
 180 001a 0096     		str	r6, [sp]
 181 001c 2346     		mov	r3, r4
 182 001e AAB2     		uxth	r2, r5
 183 0020 0349     		ldr	r1, .L12
 184 0022 D4F8C800 		ldr	r0, [r4, #200]
 185 0026 FFF7FEFF 		bl	xTaskCreate
 186              	.LVL17:
  37:Core/Src/Middleware/Active_Object/active_object.c **** }
 187              		.loc 1 37 1 is_stmt 0 view .LVU38
 188 002a 02B0     		add	sp, sp, #8
 189              	.LCFI4:
 190              		.cfi_def_cfa_offset 16
 191              		@ sp needed
 192 002c 70BD     		pop	{r4, r5, r6, pc}
 193              	.LVL18:
 194              	.L13:
 195              		.loc 1 37 1 view .LVU39
 196 002e 00BF     		.align	2
ARM GAS  C:\Users\ACER\AppData\Local\Temp\ccImKfKw.s 			page 5


 197              	.L12:
 198 0030 00000000 		.word	.LC0
 199              		.cfi_endproc
 200              	.LFE137:
 202              		.section	.text.loopEvent,"ax",%progbits
 203              		.align	1
 204              		.syntax unified
 205              		.thumb
 206              		.thumb_func
 208              	loopEvent:
 209              	.LVL19:
 210              	.LFB140:
  38:Core/Src/Middleware/Active_Object/active_object.c **** 
  39:Core/Src/Middleware/Active_Object/active_object.c **** static void post(struct Ao * const self, Event const * const event)
  40:Core/Src/Middleware/Active_Object/active_object.c **** {
  41:Core/Src/Middleware/Active_Object/active_object.c ****     xQueueSendToBack(self->queue, (void *)&event, (TickType_t)0);
  42:Core/Src/Middleware/Active_Object/active_object.c **** }
  43:Core/Src/Middleware/Active_Object/active_object.c **** 
  44:Core/Src/Middleware/Active_Object/active_object.c **** static void postFromISR(struct Ao * const self, Event const * const event, BaseType_t *pxHigherPrio
  45:Core/Src/Middleware/Active_Object/active_object.c **** {
  46:Core/Src/Middleware/Active_Object/active_object.c ****     xQueueSendToBackFromISR(self->queue, (void *)&event, pxHigherPriorityTaskWoken); 
  47:Core/Src/Middleware/Active_Object/active_object.c **** }
  48:Core/Src/Middleware/Active_Object/active_object.c **** 
  49:Core/Src/Middleware/Active_Object/active_object.c **** static void loopEvent(void * pData)
  50:Core/Src/Middleware/Active_Object/active_object.c **** {
 211              		.loc 1 50 1 is_stmt 1 view -0
 212              		.cfi_startproc
 213              		@ args = 0, pretend = 0, frame = 8
 214              		@ frame_needed = 0, uses_anonymous_args = 0
 215              		.loc 1 50 1 is_stmt 0 view .LVU41
 216 0000 10B5     		push	{r4, lr}
 217              	.LCFI5:
 218              		.cfi_def_cfa_offset 8
 219              		.cfi_offset 4, -8
 220              		.cfi_offset 14, -4
 221 0002 82B0     		sub	sp, sp, #8
 222              	.LCFI6:
 223              		.cfi_def_cfa_offset 16
 224 0004 0446     		mov	r4, r0
  51:Core/Src/Middleware/Active_Object/active_object.c ****     struct Ao * ao_instance = (struct Ao *)pData;
 225              		.loc 1 51 5 is_stmt 1 view .LVU42
 226              	.LVL20:
  52:Core/Src/Middleware/Active_Object/active_object.c ****     static Event const entry_evt = {.signal = ENTRY_SIG};
 227              		.loc 1 52 5 view .LVU43
  53:Core/Src/Middleware/Active_Object/active_object.c ****     ao_instance->init(ao_instance, &entry_evt);
 228              		.loc 1 53 5 view .LVU44
 229              		.loc 1 53 16 is_stmt 0 view .LVU45
 230 0006 D0F8B430 		ldr	r3, [r0, #180]
 231              		.loc 1 53 5 view .LVU46
 232 000a 0749     		ldr	r1, .L17
 233 000c 9847     		blx	r3
 234              	.LVL21:
 235              	.L15:
  54:Core/Src/Middleware/Active_Object/active_object.c **** 
  55:Core/Src/Middleware/Active_Object/active_object.c ****     while(1)
 236              		.loc 1 55 5 is_stmt 1 view .LVU47
 237              	.LBB2:
ARM GAS  C:\Users\ACER\AppData\Local\Temp\ccImKfKw.s 			page 6


  56:Core/Src/Middleware/Active_Object/active_object.c ****     {
  57:Core/Src/Middleware/Active_Object/active_object.c ****         Event * event;
 238              		.loc 1 57 9 view .LVU48
  58:Core/Src/Middleware/Active_Object/active_object.c ****         xQueueReceive(ao_instance->queue, &event, portMAX_DELAY);
 239              		.loc 1 58 9 view .LVU49
 240 000e 4FF0FF32 		mov	r2, #-1
 241 0012 01A9     		add	r1, sp, #4
 242 0014 206E     		ldr	r0, [r4, #96]
 243 0016 FFF7FEFF 		bl	xQueueReceive
 244              	.LVL22:
  59:Core/Src/Middleware/Active_Object/active_object.c ****         ao_instance->dispatch(ao_instance, (Event *)event);
 245              		.loc 1 59 9 view .LVU50
 246              		.loc 1 59 20 is_stmt 0 view .LVU51
 247 001a D4F8B830 		ldr	r3, [r4, #184]
 248              		.loc 1 59 9 view .LVU52
 249 001e 0199     		ldr	r1, [sp, #4]
 250 0020 2046     		mov	r0, r4
 251 0022 9847     		blx	r3
 252              	.LVL23:
 253              	.LBE2:
  55:Core/Src/Middleware/Active_Object/active_object.c ****     {
 254              		.loc 1 55 10 is_stmt 1 view .LVU53
 255 0024 F3E7     		b	.L15
 256              	.L18:
 257 0026 00BF     		.align	2
 258              	.L17:
 259 0028 00000000 		.word	entry_evt.3
 260              		.cfi_endproc
 261              	.LFE140:
 263              		.section	.text.postFromISR,"ax",%progbits
 264              		.align	1
 265              		.syntax unified
 266              		.thumb
 267              		.thumb_func
 269              	postFromISR:
 270              	.LVL24:
 271              	.LFB139:
  45:Core/Src/Middleware/Active_Object/active_object.c ****     xQueueSendToBackFromISR(self->queue, (void *)&event, pxHigherPriorityTaskWoken); 
 272              		.loc 1 45 1 view -0
 273              		.cfi_startproc
 274              		@ args = 0, pretend = 0, frame = 8
 275              		@ frame_needed = 0, uses_anonymous_args = 0
  45:Core/Src/Middleware/Active_Object/active_object.c ****     xQueueSendToBackFromISR(self->queue, (void *)&event, pxHigherPriorityTaskWoken); 
 276              		.loc 1 45 1 is_stmt 0 view .LVU55
 277 0000 00B5     		push	{lr}
 278              	.LCFI7:
 279              		.cfi_def_cfa_offset 4
 280              		.cfi_offset 14, -4
 281 0002 83B0     		sub	sp, sp, #12
 282              	.LCFI8:
 283              		.cfi_def_cfa_offset 16
 284 0004 0191     		str	r1, [sp, #4]
  46:Core/Src/Middleware/Active_Object/active_object.c **** }
 285              		.loc 1 46 5 is_stmt 1 view .LVU56
 286 0006 0023     		movs	r3, #0
 287 0008 01A9     		add	r1, sp, #4
 288              	.LVL25:
ARM GAS  C:\Users\ACER\AppData\Local\Temp\ccImKfKw.s 			page 7


  46:Core/Src/Middleware/Active_Object/active_object.c **** }
 289              		.loc 1 46 5 is_stmt 0 view .LVU57
 290 000a 006E     		ldr	r0, [r0, #96]
 291              	.LVL26:
  46:Core/Src/Middleware/Active_Object/active_object.c **** }
 292              		.loc 1 46 5 view .LVU58
 293 000c FFF7FEFF 		bl	xQueueGenericSendFromISR
 294              	.LVL27:
  47:Core/Src/Middleware/Active_Object/active_object.c **** 
 295              		.loc 1 47 1 view .LVU59
 296 0010 03B0     		add	sp, sp, #12
 297              	.LCFI9:
 298              		.cfi_def_cfa_offset 4
 299              		@ sp needed
 300 0012 5DF804FB 		ldr	pc, [sp], #4
 301              		.cfi_endproc
 302              	.LFE139:
 304              		.section	.text.post,"ax",%progbits
 305              		.align	1
 306              		.syntax unified
 307              		.thumb
 308              		.thumb_func
 310              	post:
 311              	.LVL28:
 312              	.LFB138:
  40:Core/Src/Middleware/Active_Object/active_object.c ****     xQueueSendToBack(self->queue, (void *)&event, (TickType_t)0);
 313              		.loc 1 40 1 is_stmt 1 view -0
 314              		.cfi_startproc
 315              		@ args = 0, pretend = 0, frame = 8
 316              		@ frame_needed = 0, uses_anonymous_args = 0
  40:Core/Src/Middleware/Active_Object/active_object.c ****     xQueueSendToBack(self->queue, (void *)&event, (TickType_t)0);
 317              		.loc 1 40 1 is_stmt 0 view .LVU61
 318 0000 00B5     		push	{lr}
 319              	.LCFI10:
 320              		.cfi_def_cfa_offset 4
 321              		.cfi_offset 14, -4
 322 0002 83B0     		sub	sp, sp, #12
 323              	.LCFI11:
 324              		.cfi_def_cfa_offset 16
 325 0004 0191     		str	r1, [sp, #4]
  41:Core/Src/Middleware/Active_Object/active_object.c **** }
 326              		.loc 1 41 5 is_stmt 1 view .LVU62
 327 0006 0023     		movs	r3, #0
 328 0008 1A46     		mov	r2, r3
 329 000a 01A9     		add	r1, sp, #4
 330              	.LVL29:
  41:Core/Src/Middleware/Active_Object/active_object.c **** }
 331              		.loc 1 41 5 is_stmt 0 view .LVU63
 332 000c 006E     		ldr	r0, [r0, #96]
 333              	.LVL30:
  41:Core/Src/Middleware/Active_Object/active_object.c **** }
 334              		.loc 1 41 5 view .LVU64
 335 000e FFF7FEFF 		bl	xQueueGenericSend
 336              	.LVL31:
  42:Core/Src/Middleware/Active_Object/active_object.c **** 
 337              		.loc 1 42 1 view .LVU65
 338 0012 03B0     		add	sp, sp, #12
ARM GAS  C:\Users\ACER\AppData\Local\Temp\ccImKfKw.s 			page 8


 339              	.LCFI12:
 340              		.cfi_def_cfa_offset 4
 341              		@ sp needed
 342 0014 5DF804FB 		ldr	pc, [sp], #4
 343              		.cfi_endproc
 344              	.LFE138:
 346              		.section	.text.Ao_new,"ax",%progbits
 347              		.align	1
 348              		.global	Ao_new
 349              		.syntax unified
 350              		.thumb
 351              		.thumb_func
 353              	Ao_new:
 354              	.LVL32:
 355              	.LFB141:
  60:Core/Src/Middleware/Active_Object/active_object.c ****     }
  61:Core/Src/Middleware/Active_Object/active_object.c **** }
  62:Core/Src/Middleware/Active_Object/active_object.c **** 
  63:Core/Src/Middleware/Active_Object/active_object.c **** void Ao_new(struct Ao * const self, StateHandler handler)
  64:Core/Src/Middleware/Active_Object/active_object.c **** {
 356              		.loc 1 64 1 is_stmt 1 view -0
 357              		.cfi_startproc
 358              		@ args = 0, pretend = 0, frame = 0
 359              		@ frame_needed = 0, uses_anonymous_args = 0
 360              		@ link register save eliminated.
  65:Core/Src/Middleware/Active_Object/active_object.c ****     self->handler = handler;
 361              		.loc 1 65 5 view .LVU67
 362              		.loc 1 65 19 is_stmt 0 view .LVU68
 363 0000 0160     		str	r1, [r0]
  66:Core/Src/Middleware/Active_Object/active_object.c ****     self->init = &init;
 364              		.loc 1 66 5 is_stmt 1 view .LVU69
 365              		.loc 1 66 16 is_stmt 0 view .LVU70
 366 0002 094B     		ldr	r3, .L24
 367 0004 C0F8B430 		str	r3, [r0, #180]
  67:Core/Src/Middleware/Active_Object/active_object.c ****     self->dispatch = &dispatch;
 368              		.loc 1 67 5 is_stmt 1 view .LVU71
 369              		.loc 1 67 20 is_stmt 0 view .LVU72
 370 0008 084B     		ldr	r3, .L24+4
 371 000a C0F8B830 		str	r3, [r0, #184]
  68:Core/Src/Middleware/Active_Object/active_object.c ****     self->post = &post;
 372              		.loc 1 68 5 is_stmt 1 view .LVU73
 373              		.loc 1 68 16 is_stmt 0 view .LVU74
 374 000e 084B     		ldr	r3, .L24+8
 375 0010 C0F8C030 		str	r3, [r0, #192]
  69:Core/Src/Middleware/Active_Object/active_object.c ****     self->postFromISR = &postFromISR;
 376              		.loc 1 69 5 is_stmt 1 view .LVU75
 377              		.loc 1 69 23 is_stmt 0 view .LVU76
 378 0014 074B     		ldr	r3, .L24+12
 379 0016 C0F8C430 		str	r3, [r0, #196]
  70:Core/Src/Middleware/Active_Object/active_object.c ****     self->loopEvent = &loopEvent;
 380              		.loc 1 70 5 is_stmt 1 view .LVU77
 381              		.loc 1 70 21 is_stmt 0 view .LVU78
 382 001a 074B     		ldr	r3, .L24+16
 383 001c C0F8C830 		str	r3, [r0, #200]
  71:Core/Src/Middleware/Active_Object/active_object.c ****     self->start = &start;
 384              		.loc 1 71 5 is_stmt 1 view .LVU79
 385              		.loc 1 71 17 is_stmt 0 view .LVU80
ARM GAS  C:\Users\ACER\AppData\Local\Temp\ccImKfKw.s 			page 9


 386 0020 064B     		ldr	r3, .L24+20
 387 0022 C0F8BC30 		str	r3, [r0, #188]
  72:Core/Src/Middleware/Active_Object/active_object.c **** }
 388              		.loc 1 72 1 view .LVU81
 389 0026 7047     		bx	lr
 390              	.L25:
 391              		.align	2
 392              	.L24:
 393 0028 00000000 		.word	init
 394 002c 00000000 		.word	dispatch
 395 0030 00000000 		.word	post
 396 0034 00000000 		.word	postFromISR
 397 0038 00000000 		.word	loopEvent
 398 003c 00000000 		.word	start
 399              		.cfi_endproc
 400              	.LFE141:
 402              		.section	.rodata.entry_evt.0,"a"
 403              		.align	2
 406              	entry_evt.0:
 407 0000 0100     		.short	1
 408              		.section	.rodata.entry_evt.1,"a"
 409              		.align	2
 412              	entry_evt.1:
 413 0000 0100     		.short	1
 414              		.section	.rodata.exit_evt.2,"a"
 415              		.align	2
 418              	exit_evt.2:
 419 0000 0200     		.short	2
 420              		.section	.rodata.entry_evt.3,"a"
 421              		.align	2
 424              	entry_evt.3:
 425 0000 0100     		.short	1
 426              		.text
 427              	.Letext0:
 428              		.file 2 "D:/Software/Arm Toolchain/arm-gnu-toolchain-13.2.rel1-mingw-w64-i686-arm-none-eabi/arm-gn
 429              		.file 3 "D:/Software/Arm Toolchain/arm-gnu-toolchain-13.2.rel1-mingw-w64-i686-arm-none-eabi/arm-gn
 430              		.file 4 "ThirdParty/FreeRTOS/include/projdefs.h"
 431              		.file 5 "ThirdParty/FreeRTOS/portable/GCC/ARM_CM4F/portmacro.h"
 432              		.file 6 "ThirdParty/FreeRTOS/include/FreeRTOS.h"
 433              		.file 7 "ThirdParty/FreeRTOS/include/task.h"
 434              		.file 8 "ThirdParty/FreeRTOS/include/queue.h"
 435              		.file 9 "Core/Src/Middleware/Active_Object/active_object.h"
ARM GAS  C:\Users\ACER\AppData\Local\Temp\ccImKfKw.s 			page 10


DEFINED SYMBOLS
                            *ABS*:00000000 active_object.c
C:\Users\ACER\AppData\Local\Temp\ccImKfKw.s:21     .text.init:00000000 $t
C:\Users\ACER\AppData\Local\Temp\ccImKfKw.s:26     .text.init:00000000 init
C:\Users\ACER\AppData\Local\Temp\ccImKfKw.s:60     .text.init:00000014 $d
C:\Users\ACER\AppData\Local\Temp\ccImKfKw.s:406    .rodata.entry_evt.0:00000000 entry_evt.0
C:\Users\ACER\AppData\Local\Temp\ccImKfKw.s:65     .text.dispatch:00000000 $t
C:\Users\ACER\AppData\Local\Temp\ccImKfKw.s:70     .text.dispatch:00000000 dispatch
C:\Users\ACER\AppData\Local\Temp\ccImKfKw.s:123    .text.dispatch:0000001c $d
C:\Users\ACER\AppData\Local\Temp\ccImKfKw.s:418    .rodata.exit_evt.2:00000000 exit_evt.2
C:\Users\ACER\AppData\Local\Temp\ccImKfKw.s:412    .rodata.entry_evt.1:00000000 entry_evt.1
C:\Users\ACER\AppData\Local\Temp\ccImKfKw.s:129    .rodata.start.str1.4:00000000 $d
C:\Users\ACER\AppData\Local\Temp\ccImKfKw.s:133    .text.start:00000000 $t
C:\Users\ACER\AppData\Local\Temp\ccImKfKw.s:138    .text.start:00000000 start
C:\Users\ACER\AppData\Local\Temp\ccImKfKw.s:198    .text.start:00000030 $d
C:\Users\ACER\AppData\Local\Temp\ccImKfKw.s:203    .text.loopEvent:00000000 $t
C:\Users\ACER\AppData\Local\Temp\ccImKfKw.s:208    .text.loopEvent:00000000 loopEvent
C:\Users\ACER\AppData\Local\Temp\ccImKfKw.s:259    .text.loopEvent:00000028 $d
C:\Users\ACER\AppData\Local\Temp\ccImKfKw.s:424    .rodata.entry_evt.3:00000000 entry_evt.3
C:\Users\ACER\AppData\Local\Temp\ccImKfKw.s:264    .text.postFromISR:00000000 $t
C:\Users\ACER\AppData\Local\Temp\ccImKfKw.s:269    .text.postFromISR:00000000 postFromISR
C:\Users\ACER\AppData\Local\Temp\ccImKfKw.s:305    .text.post:00000000 $t
C:\Users\ACER\AppData\Local\Temp\ccImKfKw.s:310    .text.post:00000000 post
C:\Users\ACER\AppData\Local\Temp\ccImKfKw.s:347    .text.Ao_new:00000000 $t
C:\Users\ACER\AppData\Local\Temp\ccImKfKw.s:353    .text.Ao_new:00000000 Ao_new
C:\Users\ACER\AppData\Local\Temp\ccImKfKw.s:393    .text.Ao_new:00000028 $d
C:\Users\ACER\AppData\Local\Temp\ccImKfKw.s:403    .rodata.entry_evt.0:00000000 $d
C:\Users\ACER\AppData\Local\Temp\ccImKfKw.s:409    .rodata.entry_evt.1:00000000 $d
C:\Users\ACER\AppData\Local\Temp\ccImKfKw.s:415    .rodata.exit_evt.2:00000000 $d
C:\Users\ACER\AppData\Local\Temp\ccImKfKw.s:421    .rodata.entry_evt.3:00000000 $d

UNDEFINED SYMBOLS
xQueueGenericCreate
xTaskCreate
xQueueReceive
xQueueGenericSendFromISR
xQueueGenericSend
