ARM GAS  C:\Users\ACER\AppData\Local\Temp\cclMZ9Th.s 			page 1


   1              		.cpu cortex-m4
   2              		.arch armv7e-m
   3              		.fpu fpv4-sp-d16
   4              		.eabi_attribute 27, 1
   5              		.eabi_attribute 28, 1
   6              		.eabi_attribute 20, 1
   7              		.eabi_attribute 21, 1
   8              		.eabi_attribute 23, 3
   9              		.eabi_attribute 24, 1
  10              		.eabi_attribute 25, 1
  11              		.eabi_attribute 26, 1
  12              		.eabi_attribute 30, 1
  13              		.eabi_attribute 34, 1
  14              		.eabi_attribute 18, 4
  15              		.file	"arm_conv_partial_fast_q15.c"
  16              		.text
  17              	.Ltext0:
  18              		.cfi_sections	.debug_frame
  19              		.file 1 "Drivers/CMSIS/DSP/Source/FilteringFunctions/arm_conv_partial_fast_q15.c"
  20              		.section	.text.arm_conv_partial_fast_q15,"ax",%progbits
  21              		.align	1
  22              		.global	arm_conv_partial_fast_q15
  23              		.syntax unified
  24              		.thumb
  25              		.thumb_func
  27              	arm_conv_partial_fast_q15:
  28              	.LVL0:
  29              	.LFB135:
   1:Drivers/CMSIS/DSP/Source/FilteringFunctions/arm_conv_partial_fast_q15.c **** /* ----------------------------------------------------------------------
   2:Drivers/CMSIS/DSP/Source/FilteringFunctions/arm_conv_partial_fast_q15.c ****  * Project:      CMSIS DSP Library
   3:Drivers/CMSIS/DSP/Source/FilteringFunctions/arm_conv_partial_fast_q15.c ****  * Title:        arm_conv_partial_fast_q15.c
   4:Drivers/CMSIS/DSP/Source/FilteringFunctions/arm_conv_partial_fast_q15.c ****  * Description:  Fast Q15 Partial convolution
   5:Drivers/CMSIS/DSP/Source/FilteringFunctions/arm_conv_partial_fast_q15.c ****  *
   6:Drivers/CMSIS/DSP/Source/FilteringFunctions/arm_conv_partial_fast_q15.c ****  * $Date:        27. January 2017
   7:Drivers/CMSIS/DSP/Source/FilteringFunctions/arm_conv_partial_fast_q15.c ****  * $Revision:    V.1.5.1
   8:Drivers/CMSIS/DSP/Source/FilteringFunctions/arm_conv_partial_fast_q15.c ****  *
   9:Drivers/CMSIS/DSP/Source/FilteringFunctions/arm_conv_partial_fast_q15.c ****  * Target Processor: Cortex-M cores
  10:Drivers/CMSIS/DSP/Source/FilteringFunctions/arm_conv_partial_fast_q15.c ****  * -------------------------------------------------------------------- */
  11:Drivers/CMSIS/DSP/Source/FilteringFunctions/arm_conv_partial_fast_q15.c **** /*
  12:Drivers/CMSIS/DSP/Source/FilteringFunctions/arm_conv_partial_fast_q15.c ****  * Copyright (C) 2010-2017 ARM Limited or its affiliates. All rights reserved.
  13:Drivers/CMSIS/DSP/Source/FilteringFunctions/arm_conv_partial_fast_q15.c ****  *
  14:Drivers/CMSIS/DSP/Source/FilteringFunctions/arm_conv_partial_fast_q15.c ****  * SPDX-License-Identifier: Apache-2.0
  15:Drivers/CMSIS/DSP/Source/FilteringFunctions/arm_conv_partial_fast_q15.c ****  *
  16:Drivers/CMSIS/DSP/Source/FilteringFunctions/arm_conv_partial_fast_q15.c ****  * Licensed under the Apache License, Version 2.0 (the License); you may
  17:Drivers/CMSIS/DSP/Source/FilteringFunctions/arm_conv_partial_fast_q15.c ****  * not use this file except in compliance with the License.
  18:Drivers/CMSIS/DSP/Source/FilteringFunctions/arm_conv_partial_fast_q15.c ****  * You may obtain a copy of the License at
  19:Drivers/CMSIS/DSP/Source/FilteringFunctions/arm_conv_partial_fast_q15.c ****  *
  20:Drivers/CMSIS/DSP/Source/FilteringFunctions/arm_conv_partial_fast_q15.c ****  * www.apache.org/licenses/LICENSE-2.0
  21:Drivers/CMSIS/DSP/Source/FilteringFunctions/arm_conv_partial_fast_q15.c ****  *
  22:Drivers/CMSIS/DSP/Source/FilteringFunctions/arm_conv_partial_fast_q15.c ****  * Unless required by applicable law or agreed to in writing, software
  23:Drivers/CMSIS/DSP/Source/FilteringFunctions/arm_conv_partial_fast_q15.c ****  * distributed under the License is distributed on an AS IS BASIS, WITHOUT
  24:Drivers/CMSIS/DSP/Source/FilteringFunctions/arm_conv_partial_fast_q15.c ****  * WARRANTIES OR CONDITIONS OF ANY KIND, either express or implied.
  25:Drivers/CMSIS/DSP/Source/FilteringFunctions/arm_conv_partial_fast_q15.c ****  * See the License for the specific language governing permissions and
  26:Drivers/CMSIS/DSP/Source/FilteringFunctions/arm_conv_partial_fast_q15.c ****  * limitations under the License.
  27:Drivers/CMSIS/DSP/Source/FilteringFunctions/arm_conv_partial_fast_q15.c ****  */
  28:Drivers/CMSIS/DSP/Source/FilteringFunctions/arm_conv_partial_fast_q15.c **** 
  29:Drivers/CMSIS/DSP/Source/FilteringFunctions/arm_conv_partial_fast_q15.c **** #include "arm_math.h"
ARM GAS  C:\Users\ACER\AppData\Local\Temp\cclMZ9Th.s 			page 2


  30:Drivers/CMSIS/DSP/Source/FilteringFunctions/arm_conv_partial_fast_q15.c **** 
  31:Drivers/CMSIS/DSP/Source/FilteringFunctions/arm_conv_partial_fast_q15.c **** /**
  32:Drivers/CMSIS/DSP/Source/FilteringFunctions/arm_conv_partial_fast_q15.c ****  * @ingroup groupFilters
  33:Drivers/CMSIS/DSP/Source/FilteringFunctions/arm_conv_partial_fast_q15.c ****  */
  34:Drivers/CMSIS/DSP/Source/FilteringFunctions/arm_conv_partial_fast_q15.c **** 
  35:Drivers/CMSIS/DSP/Source/FilteringFunctions/arm_conv_partial_fast_q15.c **** /**
  36:Drivers/CMSIS/DSP/Source/FilteringFunctions/arm_conv_partial_fast_q15.c ****  * @addtogroup PartialConv
  37:Drivers/CMSIS/DSP/Source/FilteringFunctions/arm_conv_partial_fast_q15.c ****  * @{
  38:Drivers/CMSIS/DSP/Source/FilteringFunctions/arm_conv_partial_fast_q15.c ****  */
  39:Drivers/CMSIS/DSP/Source/FilteringFunctions/arm_conv_partial_fast_q15.c **** 
  40:Drivers/CMSIS/DSP/Source/FilteringFunctions/arm_conv_partial_fast_q15.c **** /**
  41:Drivers/CMSIS/DSP/Source/FilteringFunctions/arm_conv_partial_fast_q15.c ****  * @brief Partial convolution of Q15 sequences (fast version) for Cortex-M3 and Cortex-M4.
  42:Drivers/CMSIS/DSP/Source/FilteringFunctions/arm_conv_partial_fast_q15.c ****  * @param[in]       *pSrcA points to the first input sequence.
  43:Drivers/CMSIS/DSP/Source/FilteringFunctions/arm_conv_partial_fast_q15.c ****  * @param[in]       srcALen length of the first input sequence.
  44:Drivers/CMSIS/DSP/Source/FilteringFunctions/arm_conv_partial_fast_q15.c ****  * @param[in]       *pSrcB points to the second input sequence.
  45:Drivers/CMSIS/DSP/Source/FilteringFunctions/arm_conv_partial_fast_q15.c ****  * @param[in]       srcBLen length of the second input sequence.
  46:Drivers/CMSIS/DSP/Source/FilteringFunctions/arm_conv_partial_fast_q15.c ****  * @param[out]      *pDst points to the location where the output result is written.
  47:Drivers/CMSIS/DSP/Source/FilteringFunctions/arm_conv_partial_fast_q15.c ****  * @param[in]       firstIndex is the first output sample to start with.
  48:Drivers/CMSIS/DSP/Source/FilteringFunctions/arm_conv_partial_fast_q15.c ****  * @param[in]       numPoints is the number of output points to be computed.
  49:Drivers/CMSIS/DSP/Source/FilteringFunctions/arm_conv_partial_fast_q15.c ****  * @return Returns either ARM_MATH_SUCCESS if the function completed correctly or ARM_MATH_ARGUMENT
  50:Drivers/CMSIS/DSP/Source/FilteringFunctions/arm_conv_partial_fast_q15.c ****  *
  51:Drivers/CMSIS/DSP/Source/FilteringFunctions/arm_conv_partial_fast_q15.c ****  * See <code>arm_conv_partial_q15()</code> for a slower implementation of this function which uses 
  52:Drivers/CMSIS/DSP/Source/FilteringFunctions/arm_conv_partial_fast_q15.c ****  */
  53:Drivers/CMSIS/DSP/Source/FilteringFunctions/arm_conv_partial_fast_q15.c **** 
  54:Drivers/CMSIS/DSP/Source/FilteringFunctions/arm_conv_partial_fast_q15.c **** 
  55:Drivers/CMSIS/DSP/Source/FilteringFunctions/arm_conv_partial_fast_q15.c **** arm_status arm_conv_partial_fast_q15(
  56:Drivers/CMSIS/DSP/Source/FilteringFunctions/arm_conv_partial_fast_q15.c ****   q15_t * pSrcA,
  57:Drivers/CMSIS/DSP/Source/FilteringFunctions/arm_conv_partial_fast_q15.c ****   uint32_t srcALen,
  58:Drivers/CMSIS/DSP/Source/FilteringFunctions/arm_conv_partial_fast_q15.c ****   q15_t * pSrcB,
  59:Drivers/CMSIS/DSP/Source/FilteringFunctions/arm_conv_partial_fast_q15.c ****   uint32_t srcBLen,
  60:Drivers/CMSIS/DSP/Source/FilteringFunctions/arm_conv_partial_fast_q15.c ****   q15_t * pDst,
  61:Drivers/CMSIS/DSP/Source/FilteringFunctions/arm_conv_partial_fast_q15.c ****   uint32_t firstIndex,
  62:Drivers/CMSIS/DSP/Source/FilteringFunctions/arm_conv_partial_fast_q15.c ****   uint32_t numPoints)
  63:Drivers/CMSIS/DSP/Source/FilteringFunctions/arm_conv_partial_fast_q15.c **** {
  30              		.loc 1 63 1 view -0
  31              		.cfi_startproc
  32              		@ args = 12, pretend = 0, frame = 56
  33              		@ frame_needed = 0, uses_anonymous_args = 0
  34              		.loc 1 63 1 is_stmt 0 view .LVU1
  35 0000 2DE9F04F 		push	{r4, r5, r6, r7, r8, r9, r10, fp, lr}
  36              	.LCFI0:
  37              		.cfi_def_cfa_offset 36
  38              		.cfi_offset 4, -36
  39              		.cfi_offset 5, -32
  40              		.cfi_offset 6, -28
  41              		.cfi_offset 7, -24
  42              		.cfi_offset 8, -20
  43              		.cfi_offset 9, -16
  44              		.cfi_offset 10, -12
  45              		.cfi_offset 11, -8
  46              		.cfi_offset 14, -4
  47 0004 8FB0     		sub	sp, sp, #60
  48              	.LCFI1:
  49              		.cfi_def_cfa_offset 96
  50 0006 8046     		mov	r8, r0
  51 0008 0C46     		mov	r4, r1
  52 000a 0791     		str	r1, [sp, #28]
ARM GAS  C:\Users\ACER\AppData\Local\Temp\cclMZ9Th.s 			page 3


  53 000c 1546     		mov	r5, r2
  54 000e 0592     		str	r2, [sp, #20]
  55 0010 9946     		mov	r9, r3
  56 0012 1998     		ldr	r0, [sp, #100]
  57              	.LVL1:
  58              		.loc 1 63 1 view .LVU2
  59 0014 1A9B     		ldr	r3, [sp, #104]
  60              	.LVL2:
  64:Drivers/CMSIS/DSP/Source/FilteringFunctions/arm_conv_partial_fast_q15.c **** #ifndef UNALIGNED_SUPPORT_DISABLE
  65:Drivers/CMSIS/DSP/Source/FilteringFunctions/arm_conv_partial_fast_q15.c **** 
  66:Drivers/CMSIS/DSP/Source/FilteringFunctions/arm_conv_partial_fast_q15.c ****   q15_t *pIn1;                                   /* inputA pointer               */
  61              		.loc 1 66 3 is_stmt 1 view .LVU3
  67:Drivers/CMSIS/DSP/Source/FilteringFunctions/arm_conv_partial_fast_q15.c ****   q15_t *pIn2;                                   /* inputB pointer               */
  62              		.loc 1 67 3 view .LVU4
  68:Drivers/CMSIS/DSP/Source/FilteringFunctions/arm_conv_partial_fast_q15.c ****   q15_t *pOut = pDst;                            /* output pointer               */
  63              		.loc 1 68 3 view .LVU5
  69:Drivers/CMSIS/DSP/Source/FilteringFunctions/arm_conv_partial_fast_q15.c ****   q31_t sum, acc0, acc1, acc2, acc3;             /* Accumulator                  */
  64              		.loc 1 69 3 view .LVU6
  70:Drivers/CMSIS/DSP/Source/FilteringFunctions/arm_conv_partial_fast_q15.c ****   q15_t *px;                                     /* Intermediate inputA pointer  */
  65              		.loc 1 70 3 view .LVU7
  71:Drivers/CMSIS/DSP/Source/FilteringFunctions/arm_conv_partial_fast_q15.c ****   q15_t *py;                                     /* Intermediate inputB pointer  */
  66              		.loc 1 71 3 view .LVU8
  72:Drivers/CMSIS/DSP/Source/FilteringFunctions/arm_conv_partial_fast_q15.c ****   q15_t *pSrc1, *pSrc2;                          /* Intermediate pointers        */
  67              		.loc 1 72 3 view .LVU9
  73:Drivers/CMSIS/DSP/Source/FilteringFunctions/arm_conv_partial_fast_q15.c ****   q31_t x0, x1, x2, x3, c0;
  68              		.loc 1 73 3 view .LVU10
  74:Drivers/CMSIS/DSP/Source/FilteringFunctions/arm_conv_partial_fast_q15.c ****   uint32_t j, k, count, check, blkCnt;
  69              		.loc 1 74 3 view .LVU11
  75:Drivers/CMSIS/DSP/Source/FilteringFunctions/arm_conv_partial_fast_q15.c ****   int32_t blockSize1, blockSize2, blockSize3;    /* loop counters                 */
  70              		.loc 1 75 3 view .LVU12
  76:Drivers/CMSIS/DSP/Source/FilteringFunctions/arm_conv_partial_fast_q15.c ****   arm_status status;                             /* status of Partial convolution */
  71              		.loc 1 76 3 view .LVU13
  77:Drivers/CMSIS/DSP/Source/FilteringFunctions/arm_conv_partial_fast_q15.c **** 
  78:Drivers/CMSIS/DSP/Source/FilteringFunctions/arm_conv_partial_fast_q15.c ****   /* Check for range of output samples to be calculated */
  79:Drivers/CMSIS/DSP/Source/FilteringFunctions/arm_conv_partial_fast_q15.c ****   if ((firstIndex + numPoints) > ((srcALen + (srcBLen - 1U))))
  72              		.loc 1 79 3 view .LVU14
  73              		.loc 1 79 19 is_stmt 0 view .LVU15
  74 0016 C218     		adds	r2, r0, r3
  75              	.LVL3:
  76              		.loc 1 79 44 view .LVU16
  77 0018 4944     		add	r1, r9, r1
  78              	.LVL4:
  79              		.loc 1 79 44 view .LVU17
  80 001a 0139     		subs	r1, r1, #1
  81              		.loc 1 79 6 view .LVU18
  82 001c 8A42     		cmp	r2, r1
  83 001e 00F23E82 		bhi	.L49
  80:Drivers/CMSIS/DSP/Source/FilteringFunctions/arm_conv_partial_fast_q15.c ****   {
  81:Drivers/CMSIS/DSP/Source/FilteringFunctions/arm_conv_partial_fast_q15.c ****     /* Set status as ARM_MATH_ARGUMENT_ERROR */
  82:Drivers/CMSIS/DSP/Source/FilteringFunctions/arm_conv_partial_fast_q15.c ****     status = ARM_MATH_ARGUMENT_ERROR;
  83:Drivers/CMSIS/DSP/Source/FilteringFunctions/arm_conv_partial_fast_q15.c ****   }
  84:Drivers/CMSIS/DSP/Source/FilteringFunctions/arm_conv_partial_fast_q15.c ****   else
  85:Drivers/CMSIS/DSP/Source/FilteringFunctions/arm_conv_partial_fast_q15.c ****   {
  86:Drivers/CMSIS/DSP/Source/FilteringFunctions/arm_conv_partial_fast_q15.c **** 
  87:Drivers/CMSIS/DSP/Source/FilteringFunctions/arm_conv_partial_fast_q15.c ****     /* The algorithm implementation is based on the lengths of the inputs. */
  88:Drivers/CMSIS/DSP/Source/FilteringFunctions/arm_conv_partial_fast_q15.c ****     /* srcB is always made to slide across srcA. */
  89:Drivers/CMSIS/DSP/Source/FilteringFunctions/arm_conv_partial_fast_q15.c ****     /* So srcBLen is always considered as shorter or equal to srcALen */
ARM GAS  C:\Users\ACER\AppData\Local\Temp\cclMZ9Th.s 			page 4


  90:Drivers/CMSIS/DSP/Source/FilteringFunctions/arm_conv_partial_fast_q15.c ****     if (srcALen >=srcBLen)
  84              		.loc 1 90 5 is_stmt 1 view .LVU19
  85              		.loc 1 90 8 is_stmt 0 view .LVU20
  86 0022 A145     		cmp	r9, r4
  87 0024 05D8     		bhi	.L3
  91:Drivers/CMSIS/DSP/Source/FilteringFunctions/arm_conv_partial_fast_q15.c ****     {
  92:Drivers/CMSIS/DSP/Source/FilteringFunctions/arm_conv_partial_fast_q15.c ****       /* Initialization of inputA pointer */
  93:Drivers/CMSIS/DSP/Source/FilteringFunctions/arm_conv_partial_fast_q15.c ****       pIn1 = pSrcA;
  88              		.loc 1 93 12 view .LVU21
  89 0026 CDF81480 		str	r8, [sp, #20]
  94:Drivers/CMSIS/DSP/Source/FilteringFunctions/arm_conv_partial_fast_q15.c **** 
  95:Drivers/CMSIS/DSP/Source/FilteringFunctions/arm_conv_partial_fast_q15.c ****       /* Initialization of inputB pointer */
  96:Drivers/CMSIS/DSP/Source/FilteringFunctions/arm_conv_partial_fast_q15.c ****       pIn2 = pSrcB;
  90              		.loc 1 96 12 view .LVU22
  91 002a A846     		mov	r8, r5
  92              	.LVL5:
  90:Drivers/CMSIS/DSP/Source/FilteringFunctions/arm_conv_partial_fast_q15.c ****     {
  93              		.loc 1 90 8 view .LVU23
  94 002c 4946     		mov	r1, r9
  95 002e A146     		mov	r9, r4
  96              	.LVL6:
  90:Drivers/CMSIS/DSP/Source/FilteringFunctions/arm_conv_partial_fast_q15.c ****     {
  97              		.loc 1 90 8 view .LVU24
  98 0030 0791     		str	r1, [sp, #28]
  99              	.LVL7:
 100              	.L3:
  97:Drivers/CMSIS/DSP/Source/FilteringFunctions/arm_conv_partial_fast_q15.c ****     }
  98:Drivers/CMSIS/DSP/Source/FilteringFunctions/arm_conv_partial_fast_q15.c ****     else
  99:Drivers/CMSIS/DSP/Source/FilteringFunctions/arm_conv_partial_fast_q15.c ****     {
 100:Drivers/CMSIS/DSP/Source/FilteringFunctions/arm_conv_partial_fast_q15.c ****       /* Initialization of inputA pointer */
 101:Drivers/CMSIS/DSP/Source/FilteringFunctions/arm_conv_partial_fast_q15.c ****       pIn1 = pSrcB;
 102:Drivers/CMSIS/DSP/Source/FilteringFunctions/arm_conv_partial_fast_q15.c **** 
 103:Drivers/CMSIS/DSP/Source/FilteringFunctions/arm_conv_partial_fast_q15.c ****       /* Initialization of inputB pointer */
 104:Drivers/CMSIS/DSP/Source/FilteringFunctions/arm_conv_partial_fast_q15.c ****       pIn2 = pSrcA;
 105:Drivers/CMSIS/DSP/Source/FilteringFunctions/arm_conv_partial_fast_q15.c **** 
 106:Drivers/CMSIS/DSP/Source/FilteringFunctions/arm_conv_partial_fast_q15.c ****       /* srcBLen is always considered as shorter or equal to srcALen */
 107:Drivers/CMSIS/DSP/Source/FilteringFunctions/arm_conv_partial_fast_q15.c ****       j = srcBLen;
 108:Drivers/CMSIS/DSP/Source/FilteringFunctions/arm_conv_partial_fast_q15.c ****       srcBLen = srcALen;
 109:Drivers/CMSIS/DSP/Source/FilteringFunctions/arm_conv_partial_fast_q15.c ****       srcALen = j;
 110:Drivers/CMSIS/DSP/Source/FilteringFunctions/arm_conv_partial_fast_q15.c ****     }
 111:Drivers/CMSIS/DSP/Source/FilteringFunctions/arm_conv_partial_fast_q15.c **** 
 112:Drivers/CMSIS/DSP/Source/FilteringFunctions/arm_conv_partial_fast_q15.c ****     /* Conditions to check which loopCounter holds
 113:Drivers/CMSIS/DSP/Source/FilteringFunctions/arm_conv_partial_fast_q15.c ****      * the first and last indices of the output samples to be calculated. */
 114:Drivers/CMSIS/DSP/Source/FilteringFunctions/arm_conv_partial_fast_q15.c ****     check = firstIndex + numPoints;
 101              		.loc 1 114 5 is_stmt 1 view .LVU25
 115:Drivers/CMSIS/DSP/Source/FilteringFunctions/arm_conv_partial_fast_q15.c ****     blockSize3 = ((int32_t)check > (int32_t)srcALen) ? (int32_t)check - (int32_t)srcALen : 0;
 102              		.loc 1 115 5 view .LVU26
 103              		.loc 1 115 36 is_stmt 0 view .LVU27
 104 0032 4946     		mov	r1, r9
 105              		.loc 1 115 90 view .LVU28
 106 0034 4A45     		cmp	r2, r9
 107 0036 02DD     		ble	.L50
 108              		.loc 1 115 90 discriminator 1 view .LVU29
 109 0038 A2EB0905 		sub	r5, r2, r9
 110              	.LVL8:
 111              		.loc 1 115 90 discriminator 1 view .LVU30
 112 003c 00E0     		b	.L4
ARM GAS  C:\Users\ACER\AppData\Local\Temp\cclMZ9Th.s 			page 5


 113              	.LVL9:
 114              	.L50:
 115              		.loc 1 115 90 discriminator 2 view .LVU31
 116 003e 0025     		movs	r5, #0
 117              	.LVL10:
 118              	.L4:
 116:Drivers/CMSIS/DSP/Source/FilteringFunctions/arm_conv_partial_fast_q15.c ****     blockSize3 = ((int32_t)firstIndex > (int32_t)srcALen - 1) ? blockSize3 - (int32_t)firstIndex + 
 119              		.loc 1 116 5 is_stmt 1 view .LVU32
 120              		.loc 1 116 117 is_stmt 0 view .LVU33
 121 0040 8142     		cmp	r1, r0
 122 0042 01DC     		bgt	.L5
 123              		.loc 1 116 76 discriminator 1 view .LVU34
 124 0044 2C1A     		subs	r4, r5, r0
 125              		.loc 1 116 117 discriminator 1 view .LVU35
 126 0046 0D19     		adds	r5, r1, r4
 127              	.LVL11:
 128              	.L5:
 117:Drivers/CMSIS/DSP/Source/FilteringFunctions/arm_conv_partial_fast_q15.c ****     blockSize1 = (((int32_t) srcBLen - 1) - (int32_t) firstIndex);
 129              		.loc 1 117 5 is_stmt 1 view .LVU36
 130              		.loc 1 117 43 is_stmt 0 view .LVU37
 131 0048 0799     		ldr	r1, [sp, #28]
 132 004a A1EB000C 		sub	ip, r1, r0
 133 004e 0CF1FF3C 		add	ip, ip, #-1
 134              	.LVL12:
 118:Drivers/CMSIS/DSP/Source/FilteringFunctions/arm_conv_partial_fast_q15.c ****     blockSize1 = (blockSize1 > 0) ? ((check > (srcBLen - 1U)) ? blockSize1 :
 135              		.loc 1 118 5 is_stmt 1 view .LVU38
 119:Drivers/CMSIS/DSP/Source/FilteringFunctions/arm_conv_partial_fast_q15.c ****                                      (int32_t) numPoints) : 0;
 136              		.loc 1 119 59 is_stmt 0 view .LVU39
 137 0052 BCF1000F 		cmp	ip, #0
 138 0056 04DD     		ble	.L51
 118:Drivers/CMSIS/DSP/Source/FilteringFunctions/arm_conv_partial_fast_q15.c ****     blockSize1 = (blockSize1 > 0) ? ((check > (srcBLen - 1U)) ? blockSize1 :
 139              		.loc 1 118 56 view .LVU40
 140 0058 0139     		subs	r1, r1, #1
 118:Drivers/CMSIS/DSP/Source/FilteringFunctions/arm_conv_partial_fast_q15.c ****     blockSize1 = (blockSize1 > 0) ? ((check > (srcBLen - 1U)) ? blockSize1 :
 141              		.loc 1 118 76 view .LVU41
 142 005a 8A42     		cmp	r2, r1
 143 005c 03D8     		bhi	.L6
 118:Drivers/CMSIS/DSP/Source/FilteringFunctions/arm_conv_partial_fast_q15.c ****     blockSize1 = (blockSize1 > 0) ? ((check > (srcBLen - 1U)) ? blockSize1 :
 144              		.loc 1 118 76 discriminator 2 view .LVU42
 145 005e 9C46     		mov	ip, r3
 146              	.LVL13:
 118:Drivers/CMSIS/DSP/Source/FilteringFunctions/arm_conv_partial_fast_q15.c ****     blockSize1 = (blockSize1 > 0) ? ((check > (srcBLen - 1U)) ? blockSize1 :
 147              		.loc 1 118 76 discriminator 2 view .LVU43
 148 0060 01E0     		b	.L6
 149              	.LVL14:
 150              	.L51:
 151              		.loc 1 119 59 discriminator 1 view .LVU44
 152 0062 4FF0000C 		mov	ip, #0
 153              	.LVL15:
 154              	.L6:
 120:Drivers/CMSIS/DSP/Source/FilteringFunctions/arm_conv_partial_fast_q15.c ****     blockSize2 = (int32_t) check - ((blockSize3 + blockSize1) +
 155              		.loc 1 120 5 is_stmt 1 view .LVU45
 156              		.loc 1 120 49 is_stmt 0 view .LVU46
 157 0066 05EB0C03 		add	r3, r5, ip
 158              		.loc 1 120 63 view .LVU47
 159 006a 0344     		add	r3, r3, r0
 160              		.loc 1 120 16 view .LVU48
ARM GAS  C:\Users\ACER\AppData\Local\Temp\cclMZ9Th.s 			page 6


 161 006c D21A     		subs	r2, r2, r3
 162              	.LVL16:
 121:Drivers/CMSIS/DSP/Source/FilteringFunctions/arm_conv_partial_fast_q15.c ****                                     (int32_t) firstIndex);
 122:Drivers/CMSIS/DSP/Source/FilteringFunctions/arm_conv_partial_fast_q15.c ****     blockSize2 = (blockSize2 > 0) ? blockSize2 : 0;
 163              		.loc 1 122 5 is_stmt 1 view .LVU49
 164              		.loc 1 122 16 is_stmt 0 view .LVU50
 165 006e 22EAE277 		bic	r7, r2, r2, asr #31
 166              	.LVL17:
 123:Drivers/CMSIS/DSP/Source/FilteringFunctions/arm_conv_partial_fast_q15.c **** 
 124:Drivers/CMSIS/DSP/Source/FilteringFunctions/arm_conv_partial_fast_q15.c ****     /* conv(x,y) at n = x[n] * y[0] + x[n-1] * y[1] + x[n-2] * y[2] + ...+ x[n-N+1] * y[N -1] */
 125:Drivers/CMSIS/DSP/Source/FilteringFunctions/arm_conv_partial_fast_q15.c ****     /* The function is internally
 126:Drivers/CMSIS/DSP/Source/FilteringFunctions/arm_conv_partial_fast_q15.c ****      * divided into three stages according to the number of multiplications that has to be
 127:Drivers/CMSIS/DSP/Source/FilteringFunctions/arm_conv_partial_fast_q15.c ****      * taken place between inputA samples and inputB samples. In the first stage of the
 128:Drivers/CMSIS/DSP/Source/FilteringFunctions/arm_conv_partial_fast_q15.c ****      * algorithm, the multiplications increase by one for every iteration.
 129:Drivers/CMSIS/DSP/Source/FilteringFunctions/arm_conv_partial_fast_q15.c ****      * In the second stage of the algorithm, srcBLen number of multiplications are done.
 130:Drivers/CMSIS/DSP/Source/FilteringFunctions/arm_conv_partial_fast_q15.c ****      * In the third stage of the algorithm, the multiplications decrease by one
 131:Drivers/CMSIS/DSP/Source/FilteringFunctions/arm_conv_partial_fast_q15.c ****      * for every iteration. */
 132:Drivers/CMSIS/DSP/Source/FilteringFunctions/arm_conv_partial_fast_q15.c **** 
 133:Drivers/CMSIS/DSP/Source/FilteringFunctions/arm_conv_partial_fast_q15.c ****     /* Set the output pointer to point to the firstIndex
 134:Drivers/CMSIS/DSP/Source/FilteringFunctions/arm_conv_partial_fast_q15.c ****      * of the output sample to be calculated. */
 135:Drivers/CMSIS/DSP/Source/FilteringFunctions/arm_conv_partial_fast_q15.c ****     pOut = pDst + firstIndex;
 167              		.loc 1 135 5 is_stmt 1 view .LVU51
 168              		.loc 1 135 17 is_stmt 0 view .LVU52
 169 0072 189B     		ldr	r3, [sp, #96]
 170 0074 03EB4003 		add	r3, r3, r0, lsl #1
 171 0078 0193     		str	r3, [sp, #4]
 172              	.LVL18:
 136:Drivers/CMSIS/DSP/Source/FilteringFunctions/arm_conv_partial_fast_q15.c **** 
 137:Drivers/CMSIS/DSP/Source/FilteringFunctions/arm_conv_partial_fast_q15.c ****     /* --------------------------
 138:Drivers/CMSIS/DSP/Source/FilteringFunctions/arm_conv_partial_fast_q15.c ****      * Initializations of stage1
 139:Drivers/CMSIS/DSP/Source/FilteringFunctions/arm_conv_partial_fast_q15.c ****      * -------------------------*/
 140:Drivers/CMSIS/DSP/Source/FilteringFunctions/arm_conv_partial_fast_q15.c **** 
 141:Drivers/CMSIS/DSP/Source/FilteringFunctions/arm_conv_partial_fast_q15.c ****     /* sum = x[0] * y[0]
 142:Drivers/CMSIS/DSP/Source/FilteringFunctions/arm_conv_partial_fast_q15.c ****      * sum = x[0] * y[1] + x[1] * y[0]
 143:Drivers/CMSIS/DSP/Source/FilteringFunctions/arm_conv_partial_fast_q15.c ****      * ....
 144:Drivers/CMSIS/DSP/Source/FilteringFunctions/arm_conv_partial_fast_q15.c ****      * sum = x[0] * y[srcBlen - 1] + x[1] * y[srcBlen - 2] +...+ x[srcBLen - 1] * y[0]
 145:Drivers/CMSIS/DSP/Source/FilteringFunctions/arm_conv_partial_fast_q15.c ****      */
 146:Drivers/CMSIS/DSP/Source/FilteringFunctions/arm_conv_partial_fast_q15.c **** 
 147:Drivers/CMSIS/DSP/Source/FilteringFunctions/arm_conv_partial_fast_q15.c ****     /* In this stage the MAC operations are increased by 1 for every iteration.
 148:Drivers/CMSIS/DSP/Source/FilteringFunctions/arm_conv_partial_fast_q15.c ****        The count variable holds the number of MAC operations performed.
 149:Drivers/CMSIS/DSP/Source/FilteringFunctions/arm_conv_partial_fast_q15.c ****        Since the partial convolution starts from firstIndex
 150:Drivers/CMSIS/DSP/Source/FilteringFunctions/arm_conv_partial_fast_q15.c ****        Number of Macs to be performed is firstIndex + 1 */
 151:Drivers/CMSIS/DSP/Source/FilteringFunctions/arm_conv_partial_fast_q15.c ****     count = 1U + firstIndex;
 173              		.loc 1 151 5 is_stmt 1 view .LVU53
 174              		.loc 1 151 11 is_stmt 0 view .LVU54
 175 007a 441C     		adds	r4, r0, #1
 176              	.LVL19:
 152:Drivers/CMSIS/DSP/Source/FilteringFunctions/arm_conv_partial_fast_q15.c **** 
 153:Drivers/CMSIS/DSP/Source/FilteringFunctions/arm_conv_partial_fast_q15.c ****     /* Working pointer of inputA */
 154:Drivers/CMSIS/DSP/Source/FilteringFunctions/arm_conv_partial_fast_q15.c ****     px = pIn1;
 177              		.loc 1 154 5 is_stmt 1 view .LVU55
 155:Drivers/CMSIS/DSP/Source/FilteringFunctions/arm_conv_partial_fast_q15.c **** 
 156:Drivers/CMSIS/DSP/Source/FilteringFunctions/arm_conv_partial_fast_q15.c ****     /* Working pointer of inputB */
 157:Drivers/CMSIS/DSP/Source/FilteringFunctions/arm_conv_partial_fast_q15.c ****     pSrc2 = pIn2 + firstIndex;
 178              		.loc 1 157 5 view .LVU56
 179              		.loc 1 157 11 is_stmt 0 view .LVU57
 180 007c 08EB400E 		add	lr, r8, r0, lsl #1
ARM GAS  C:\Users\ACER\AppData\Local\Temp\cclMZ9Th.s 			page 7


 181              	.LVL20:
 158:Drivers/CMSIS/DSP/Source/FilteringFunctions/arm_conv_partial_fast_q15.c ****     py = pSrc2;
 182              		.loc 1 158 5 is_stmt 1 view .LVU58
 159:Drivers/CMSIS/DSP/Source/FilteringFunctions/arm_conv_partial_fast_q15.c **** 
 160:Drivers/CMSIS/DSP/Source/FilteringFunctions/arm_conv_partial_fast_q15.c ****     /* ------------------------
 161:Drivers/CMSIS/DSP/Source/FilteringFunctions/arm_conv_partial_fast_q15.c ****      * Stage1 process
 162:Drivers/CMSIS/DSP/Source/FilteringFunctions/arm_conv_partial_fast_q15.c ****      * ----------------------*/
 163:Drivers/CMSIS/DSP/Source/FilteringFunctions/arm_conv_partial_fast_q15.c **** 
 164:Drivers/CMSIS/DSP/Source/FilteringFunctions/arm_conv_partial_fast_q15.c ****     /* For loop unrolling by 4, this stage is divided into two. */
 165:Drivers/CMSIS/DSP/Source/FilteringFunctions/arm_conv_partial_fast_q15.c ****     /* First part of this stage computes the MAC operations less than 4 */
 166:Drivers/CMSIS/DSP/Source/FilteringFunctions/arm_conv_partial_fast_q15.c ****     /* Second part of this stage computes the MAC operations greater than or equal to 4 */
 167:Drivers/CMSIS/DSP/Source/FilteringFunctions/arm_conv_partial_fast_q15.c **** 
 168:Drivers/CMSIS/DSP/Source/FilteringFunctions/arm_conv_partial_fast_q15.c ****     /* The first part of the stage starts here */
 169:Drivers/CMSIS/DSP/Source/FilteringFunctions/arm_conv_partial_fast_q15.c ****     while ((count < 4U) && (blockSize1 > 0))
 183              		.loc 1 169 5 view .LVU59
 184              		.loc 1 169 11 is_stmt 0 view .LVU60
 185 0080 13E0     		b	.L7
 186              	.LVL21:
 187              	.L8:
 170:Drivers/CMSIS/DSP/Source/FilteringFunctions/arm_conv_partial_fast_q15.c ****     {
 171:Drivers/CMSIS/DSP/Source/FilteringFunctions/arm_conv_partial_fast_q15.c ****       /* Accumulator is made zero for every iteration */
 172:Drivers/CMSIS/DSP/Source/FilteringFunctions/arm_conv_partial_fast_q15.c ****       sum = 0;
 173:Drivers/CMSIS/DSP/Source/FilteringFunctions/arm_conv_partial_fast_q15.c **** 
 174:Drivers/CMSIS/DSP/Source/FilteringFunctions/arm_conv_partial_fast_q15.c ****       /* Loop over number of MAC operations between
 175:Drivers/CMSIS/DSP/Source/FilteringFunctions/arm_conv_partial_fast_q15.c ****        * inputA samples and inputB samples */
 176:Drivers/CMSIS/DSP/Source/FilteringFunctions/arm_conv_partial_fast_q15.c ****       k = count;
 177:Drivers/CMSIS/DSP/Source/FilteringFunctions/arm_conv_partial_fast_q15.c **** 
 178:Drivers/CMSIS/DSP/Source/FilteringFunctions/arm_conv_partial_fast_q15.c ****       while (k > 0U)
 179:Drivers/CMSIS/DSP/Source/FilteringFunctions/arm_conv_partial_fast_q15.c ****       {
 180:Drivers/CMSIS/DSP/Source/FilteringFunctions/arm_conv_partial_fast_q15.c ****         /* Perform the multiply-accumulates */
 181:Drivers/CMSIS/DSP/Source/FilteringFunctions/arm_conv_partial_fast_q15.c ****         sum = __SMLAD(*px++, *py--, sum);
 188              		.loc 1 181 9 is_stmt 1 view .LVU61
 189              		.loc 1 181 23 is_stmt 0 view .LVU62
 190 0082 32F902AB 		ldrsh	r10, [r2], #2
 191              	.LVL22:
 192              		.loc 1 181 30 view .LVU63
 193 0086 31F902B9 		ldrsh	fp, [r1], #-2
 194              	.LVL23:
 195              	.LBB66:
 196              	.LBI66:
 197              		.file 2 "Drivers/CMSIS/Include/cmsis_gcc.h"
   1:Drivers/CMSIS/Include/cmsis_gcc.h **** /**************************************************************************//**
   2:Drivers/CMSIS/Include/cmsis_gcc.h ****  * @file     cmsis_gcc.h
   3:Drivers/CMSIS/Include/cmsis_gcc.h ****  * @brief    CMSIS compiler GCC header file
   4:Drivers/CMSIS/Include/cmsis_gcc.h ****  * @version  V5.0.4
   5:Drivers/CMSIS/Include/cmsis_gcc.h ****  * @date     09. April 2018
   6:Drivers/CMSIS/Include/cmsis_gcc.h ****  ******************************************************************************/
   7:Drivers/CMSIS/Include/cmsis_gcc.h **** /*
   8:Drivers/CMSIS/Include/cmsis_gcc.h ****  * Copyright (c) 2009-2018 Arm Limited. All rights reserved.
   9:Drivers/CMSIS/Include/cmsis_gcc.h ****  *
  10:Drivers/CMSIS/Include/cmsis_gcc.h ****  * SPDX-License-Identifier: Apache-2.0
  11:Drivers/CMSIS/Include/cmsis_gcc.h ****  *
  12:Drivers/CMSIS/Include/cmsis_gcc.h ****  * Licensed under the Apache License, Version 2.0 (the License); you may
  13:Drivers/CMSIS/Include/cmsis_gcc.h ****  * not use this file except in compliance with the License.
  14:Drivers/CMSIS/Include/cmsis_gcc.h ****  * You may obtain a copy of the License at
  15:Drivers/CMSIS/Include/cmsis_gcc.h ****  *
  16:Drivers/CMSIS/Include/cmsis_gcc.h ****  * www.apache.org/licenses/LICENSE-2.0
ARM GAS  C:\Users\ACER\AppData\Local\Temp\cclMZ9Th.s 			page 8


  17:Drivers/CMSIS/Include/cmsis_gcc.h ****  *
  18:Drivers/CMSIS/Include/cmsis_gcc.h ****  * Unless required by applicable law or agreed to in writing, software
  19:Drivers/CMSIS/Include/cmsis_gcc.h ****  * distributed under the License is distributed on an AS IS BASIS, WITHOUT
  20:Drivers/CMSIS/Include/cmsis_gcc.h ****  * WARRANTIES OR CONDITIONS OF ANY KIND, either express or implied.
  21:Drivers/CMSIS/Include/cmsis_gcc.h ****  * See the License for the specific language governing permissions and
  22:Drivers/CMSIS/Include/cmsis_gcc.h ****  * limitations under the License.
  23:Drivers/CMSIS/Include/cmsis_gcc.h ****  */
  24:Drivers/CMSIS/Include/cmsis_gcc.h **** 
  25:Drivers/CMSIS/Include/cmsis_gcc.h **** #ifndef __CMSIS_GCC_H
  26:Drivers/CMSIS/Include/cmsis_gcc.h **** #define __CMSIS_GCC_H
  27:Drivers/CMSIS/Include/cmsis_gcc.h **** 
  28:Drivers/CMSIS/Include/cmsis_gcc.h **** /* ignore some GCC warnings */
  29:Drivers/CMSIS/Include/cmsis_gcc.h **** #pragma GCC diagnostic push
  30:Drivers/CMSIS/Include/cmsis_gcc.h **** #pragma GCC diagnostic ignored "-Wsign-conversion"
  31:Drivers/CMSIS/Include/cmsis_gcc.h **** #pragma GCC diagnostic ignored "-Wconversion"
  32:Drivers/CMSIS/Include/cmsis_gcc.h **** #pragma GCC diagnostic ignored "-Wunused-parameter"
  33:Drivers/CMSIS/Include/cmsis_gcc.h **** 
  34:Drivers/CMSIS/Include/cmsis_gcc.h **** /* Fallback for __has_builtin */
  35:Drivers/CMSIS/Include/cmsis_gcc.h **** #ifndef __has_builtin
  36:Drivers/CMSIS/Include/cmsis_gcc.h ****   #define __has_builtin(x) (0)
  37:Drivers/CMSIS/Include/cmsis_gcc.h **** #endif
  38:Drivers/CMSIS/Include/cmsis_gcc.h **** 
  39:Drivers/CMSIS/Include/cmsis_gcc.h **** /* CMSIS compiler specific defines */
  40:Drivers/CMSIS/Include/cmsis_gcc.h **** #ifndef   __ASM
  41:Drivers/CMSIS/Include/cmsis_gcc.h ****   #define __ASM                                  __asm
  42:Drivers/CMSIS/Include/cmsis_gcc.h **** #endif
  43:Drivers/CMSIS/Include/cmsis_gcc.h **** #ifndef   __INLINE
  44:Drivers/CMSIS/Include/cmsis_gcc.h ****   #define __INLINE                               inline
  45:Drivers/CMSIS/Include/cmsis_gcc.h **** #endif
  46:Drivers/CMSIS/Include/cmsis_gcc.h **** #ifndef   __STATIC_INLINE
  47:Drivers/CMSIS/Include/cmsis_gcc.h ****   #define __STATIC_INLINE                        static inline
  48:Drivers/CMSIS/Include/cmsis_gcc.h **** #endif
  49:Drivers/CMSIS/Include/cmsis_gcc.h **** #ifndef   __STATIC_FORCEINLINE                 
  50:Drivers/CMSIS/Include/cmsis_gcc.h ****   #define __STATIC_FORCEINLINE                   __attribute__((always_inline)) static inline
  51:Drivers/CMSIS/Include/cmsis_gcc.h **** #endif                                           
  52:Drivers/CMSIS/Include/cmsis_gcc.h **** #ifndef   __NO_RETURN
  53:Drivers/CMSIS/Include/cmsis_gcc.h ****   #define __NO_RETURN                            __attribute__((__noreturn__))
  54:Drivers/CMSIS/Include/cmsis_gcc.h **** #endif
  55:Drivers/CMSIS/Include/cmsis_gcc.h **** #ifndef   __USED
  56:Drivers/CMSIS/Include/cmsis_gcc.h ****   #define __USED                                 __attribute__((used))
  57:Drivers/CMSIS/Include/cmsis_gcc.h **** #endif
  58:Drivers/CMSIS/Include/cmsis_gcc.h **** #ifndef   __WEAK
  59:Drivers/CMSIS/Include/cmsis_gcc.h ****   #define __WEAK                                 __attribute__((weak))
  60:Drivers/CMSIS/Include/cmsis_gcc.h **** #endif
  61:Drivers/CMSIS/Include/cmsis_gcc.h **** #ifndef   __PACKED
  62:Drivers/CMSIS/Include/cmsis_gcc.h ****   #define __PACKED                               __attribute__((packed, aligned(1)))
  63:Drivers/CMSIS/Include/cmsis_gcc.h **** #endif
  64:Drivers/CMSIS/Include/cmsis_gcc.h **** #ifndef   __PACKED_STRUCT
  65:Drivers/CMSIS/Include/cmsis_gcc.h ****   #define __PACKED_STRUCT                        struct __attribute__((packed, aligned(1)))
  66:Drivers/CMSIS/Include/cmsis_gcc.h **** #endif
  67:Drivers/CMSIS/Include/cmsis_gcc.h **** #ifndef   __PACKED_UNION
  68:Drivers/CMSIS/Include/cmsis_gcc.h ****   #define __PACKED_UNION                         union __attribute__((packed, aligned(1)))
  69:Drivers/CMSIS/Include/cmsis_gcc.h **** #endif
  70:Drivers/CMSIS/Include/cmsis_gcc.h **** #ifndef   __UNALIGNED_UINT32        /* deprecated */
  71:Drivers/CMSIS/Include/cmsis_gcc.h ****   #pragma GCC diagnostic push
  72:Drivers/CMSIS/Include/cmsis_gcc.h ****   #pragma GCC diagnostic ignored "-Wpacked"
  73:Drivers/CMSIS/Include/cmsis_gcc.h ****   #pragma GCC diagnostic ignored "-Wattributes"
ARM GAS  C:\Users\ACER\AppData\Local\Temp\cclMZ9Th.s 			page 9


  74:Drivers/CMSIS/Include/cmsis_gcc.h ****   struct __attribute__((packed)) T_UINT32 { uint32_t v; };
  75:Drivers/CMSIS/Include/cmsis_gcc.h ****   #pragma GCC diagnostic pop
  76:Drivers/CMSIS/Include/cmsis_gcc.h ****   #define __UNALIGNED_UINT32(x)                  (((struct T_UINT32 *)(x))->v)
  77:Drivers/CMSIS/Include/cmsis_gcc.h **** #endif
  78:Drivers/CMSIS/Include/cmsis_gcc.h **** #ifndef   __UNALIGNED_UINT16_WRITE
  79:Drivers/CMSIS/Include/cmsis_gcc.h ****   #pragma GCC diagnostic push
  80:Drivers/CMSIS/Include/cmsis_gcc.h ****   #pragma GCC diagnostic ignored "-Wpacked"
  81:Drivers/CMSIS/Include/cmsis_gcc.h ****   #pragma GCC diagnostic ignored "-Wattributes"
  82:Drivers/CMSIS/Include/cmsis_gcc.h ****   __PACKED_STRUCT T_UINT16_WRITE { uint16_t v; };
  83:Drivers/CMSIS/Include/cmsis_gcc.h ****   #pragma GCC diagnostic pop
  84:Drivers/CMSIS/Include/cmsis_gcc.h ****   #define __UNALIGNED_UINT16_WRITE(addr, val)    (void)((((struct T_UINT16_WRITE *)(void *)(addr))-
  85:Drivers/CMSIS/Include/cmsis_gcc.h **** #endif
  86:Drivers/CMSIS/Include/cmsis_gcc.h **** #ifndef   __UNALIGNED_UINT16_READ
  87:Drivers/CMSIS/Include/cmsis_gcc.h ****   #pragma GCC diagnostic push
  88:Drivers/CMSIS/Include/cmsis_gcc.h ****   #pragma GCC diagnostic ignored "-Wpacked"
  89:Drivers/CMSIS/Include/cmsis_gcc.h ****   #pragma GCC diagnostic ignored "-Wattributes"
  90:Drivers/CMSIS/Include/cmsis_gcc.h ****   __PACKED_STRUCT T_UINT16_READ { uint16_t v; };
  91:Drivers/CMSIS/Include/cmsis_gcc.h ****   #pragma GCC diagnostic pop
  92:Drivers/CMSIS/Include/cmsis_gcc.h ****   #define __UNALIGNED_UINT16_READ(addr)          (((const struct T_UINT16_READ *)(const void *)(add
  93:Drivers/CMSIS/Include/cmsis_gcc.h **** #endif
  94:Drivers/CMSIS/Include/cmsis_gcc.h **** #ifndef   __UNALIGNED_UINT32_WRITE
  95:Drivers/CMSIS/Include/cmsis_gcc.h ****   #pragma GCC diagnostic push
  96:Drivers/CMSIS/Include/cmsis_gcc.h ****   #pragma GCC diagnostic ignored "-Wpacked"
  97:Drivers/CMSIS/Include/cmsis_gcc.h ****   #pragma GCC diagnostic ignored "-Wattributes"
  98:Drivers/CMSIS/Include/cmsis_gcc.h ****   __PACKED_STRUCT T_UINT32_WRITE { uint32_t v; };
  99:Drivers/CMSIS/Include/cmsis_gcc.h ****   #pragma GCC diagnostic pop
 100:Drivers/CMSIS/Include/cmsis_gcc.h ****   #define __UNALIGNED_UINT32_WRITE(addr, val)    (void)((((struct T_UINT32_WRITE *)(void *)(addr))-
 101:Drivers/CMSIS/Include/cmsis_gcc.h **** #endif
 102:Drivers/CMSIS/Include/cmsis_gcc.h **** #ifndef   __UNALIGNED_UINT32_READ
 103:Drivers/CMSIS/Include/cmsis_gcc.h ****   #pragma GCC diagnostic push
 104:Drivers/CMSIS/Include/cmsis_gcc.h ****   #pragma GCC diagnostic ignored "-Wpacked"
 105:Drivers/CMSIS/Include/cmsis_gcc.h ****   #pragma GCC diagnostic ignored "-Wattributes"
 106:Drivers/CMSIS/Include/cmsis_gcc.h ****   __PACKED_STRUCT T_UINT32_READ { uint32_t v; };
 107:Drivers/CMSIS/Include/cmsis_gcc.h ****   #pragma GCC diagnostic pop
 108:Drivers/CMSIS/Include/cmsis_gcc.h ****   #define __UNALIGNED_UINT32_READ(addr)          (((const struct T_UINT32_READ *)(const void *)(add
 109:Drivers/CMSIS/Include/cmsis_gcc.h **** #endif
 110:Drivers/CMSIS/Include/cmsis_gcc.h **** #ifndef   __ALIGNED
 111:Drivers/CMSIS/Include/cmsis_gcc.h ****   #define __ALIGNED(x)                           __attribute__((aligned(x)))
 112:Drivers/CMSIS/Include/cmsis_gcc.h **** #endif
 113:Drivers/CMSIS/Include/cmsis_gcc.h **** #ifndef   __RESTRICT
 114:Drivers/CMSIS/Include/cmsis_gcc.h ****   #define __RESTRICT                             __restrict
 115:Drivers/CMSIS/Include/cmsis_gcc.h **** #endif
 116:Drivers/CMSIS/Include/cmsis_gcc.h **** 
 117:Drivers/CMSIS/Include/cmsis_gcc.h **** 
 118:Drivers/CMSIS/Include/cmsis_gcc.h **** /* ###########################  Core Function Access  ########################### */
 119:Drivers/CMSIS/Include/cmsis_gcc.h **** /** \ingroup  CMSIS_Core_FunctionInterface
 120:Drivers/CMSIS/Include/cmsis_gcc.h ****     \defgroup CMSIS_Core_RegAccFunctions CMSIS Core Register Access Functions
 121:Drivers/CMSIS/Include/cmsis_gcc.h ****   @{
 122:Drivers/CMSIS/Include/cmsis_gcc.h ****  */
 123:Drivers/CMSIS/Include/cmsis_gcc.h **** 
 124:Drivers/CMSIS/Include/cmsis_gcc.h **** /**
 125:Drivers/CMSIS/Include/cmsis_gcc.h ****   \brief   Enable IRQ Interrupts
 126:Drivers/CMSIS/Include/cmsis_gcc.h ****   \details Enables IRQ interrupts by clearing the I-bit in the CPSR.
 127:Drivers/CMSIS/Include/cmsis_gcc.h ****            Can only be executed in Privileged modes.
 128:Drivers/CMSIS/Include/cmsis_gcc.h ****  */
 129:Drivers/CMSIS/Include/cmsis_gcc.h **** __STATIC_FORCEINLINE void __enable_irq(void)
 130:Drivers/CMSIS/Include/cmsis_gcc.h **** {
ARM GAS  C:\Users\ACER\AppData\Local\Temp\cclMZ9Th.s 			page 10


 131:Drivers/CMSIS/Include/cmsis_gcc.h ****   __ASM volatile ("cpsie i" : : : "memory");
 132:Drivers/CMSIS/Include/cmsis_gcc.h **** }
 133:Drivers/CMSIS/Include/cmsis_gcc.h **** 
 134:Drivers/CMSIS/Include/cmsis_gcc.h **** 
 135:Drivers/CMSIS/Include/cmsis_gcc.h **** /**
 136:Drivers/CMSIS/Include/cmsis_gcc.h ****   \brief   Disable IRQ Interrupts
 137:Drivers/CMSIS/Include/cmsis_gcc.h ****   \details Disables IRQ interrupts by setting the I-bit in the CPSR.
 138:Drivers/CMSIS/Include/cmsis_gcc.h ****            Can only be executed in Privileged modes.
 139:Drivers/CMSIS/Include/cmsis_gcc.h ****  */
 140:Drivers/CMSIS/Include/cmsis_gcc.h **** __STATIC_FORCEINLINE void __disable_irq(void)
 141:Drivers/CMSIS/Include/cmsis_gcc.h **** {
 142:Drivers/CMSIS/Include/cmsis_gcc.h ****   __ASM volatile ("cpsid i" : : : "memory");
 143:Drivers/CMSIS/Include/cmsis_gcc.h **** }
 144:Drivers/CMSIS/Include/cmsis_gcc.h **** 
 145:Drivers/CMSIS/Include/cmsis_gcc.h **** 
 146:Drivers/CMSIS/Include/cmsis_gcc.h **** /**
 147:Drivers/CMSIS/Include/cmsis_gcc.h ****   \brief   Get Control Register
 148:Drivers/CMSIS/Include/cmsis_gcc.h ****   \details Returns the content of the Control Register.
 149:Drivers/CMSIS/Include/cmsis_gcc.h ****   \return               Control Register value
 150:Drivers/CMSIS/Include/cmsis_gcc.h ****  */
 151:Drivers/CMSIS/Include/cmsis_gcc.h **** __STATIC_FORCEINLINE uint32_t __get_CONTROL(void)
 152:Drivers/CMSIS/Include/cmsis_gcc.h **** {
 153:Drivers/CMSIS/Include/cmsis_gcc.h ****   uint32_t result;
 154:Drivers/CMSIS/Include/cmsis_gcc.h **** 
 155:Drivers/CMSIS/Include/cmsis_gcc.h ****   __ASM volatile ("MRS %0, control" : "=r" (result) );
 156:Drivers/CMSIS/Include/cmsis_gcc.h ****   return(result);
 157:Drivers/CMSIS/Include/cmsis_gcc.h **** }
 158:Drivers/CMSIS/Include/cmsis_gcc.h **** 
 159:Drivers/CMSIS/Include/cmsis_gcc.h **** 
 160:Drivers/CMSIS/Include/cmsis_gcc.h **** #if (defined (__ARM_FEATURE_CMSE ) && (__ARM_FEATURE_CMSE == 3))
 161:Drivers/CMSIS/Include/cmsis_gcc.h **** /**
 162:Drivers/CMSIS/Include/cmsis_gcc.h ****   \brief   Get Control Register (non-secure)
 163:Drivers/CMSIS/Include/cmsis_gcc.h ****   \details Returns the content of the non-secure Control Register when in secure mode.
 164:Drivers/CMSIS/Include/cmsis_gcc.h ****   \return               non-secure Control Register value
 165:Drivers/CMSIS/Include/cmsis_gcc.h ****  */
 166:Drivers/CMSIS/Include/cmsis_gcc.h **** __STATIC_FORCEINLINE uint32_t __TZ_get_CONTROL_NS(void)
 167:Drivers/CMSIS/Include/cmsis_gcc.h **** {
 168:Drivers/CMSIS/Include/cmsis_gcc.h ****   uint32_t result;
 169:Drivers/CMSIS/Include/cmsis_gcc.h **** 
 170:Drivers/CMSIS/Include/cmsis_gcc.h ****   __ASM volatile ("MRS %0, control_ns" : "=r" (result) );
 171:Drivers/CMSIS/Include/cmsis_gcc.h ****   return(result);
 172:Drivers/CMSIS/Include/cmsis_gcc.h **** }
 173:Drivers/CMSIS/Include/cmsis_gcc.h **** #endif
 174:Drivers/CMSIS/Include/cmsis_gcc.h **** 
 175:Drivers/CMSIS/Include/cmsis_gcc.h **** 
 176:Drivers/CMSIS/Include/cmsis_gcc.h **** /**
 177:Drivers/CMSIS/Include/cmsis_gcc.h ****   \brief   Set Control Register
 178:Drivers/CMSIS/Include/cmsis_gcc.h ****   \details Writes the given value to the Control Register.
 179:Drivers/CMSIS/Include/cmsis_gcc.h ****   \param [in]    control  Control Register value to set
 180:Drivers/CMSIS/Include/cmsis_gcc.h ****  */
 181:Drivers/CMSIS/Include/cmsis_gcc.h **** __STATIC_FORCEINLINE void __set_CONTROL(uint32_t control)
 182:Drivers/CMSIS/Include/cmsis_gcc.h **** {
 183:Drivers/CMSIS/Include/cmsis_gcc.h ****   __ASM volatile ("MSR control, %0" : : "r" (control) : "memory");
 184:Drivers/CMSIS/Include/cmsis_gcc.h **** }
 185:Drivers/CMSIS/Include/cmsis_gcc.h **** 
 186:Drivers/CMSIS/Include/cmsis_gcc.h **** 
 187:Drivers/CMSIS/Include/cmsis_gcc.h **** #if (defined (__ARM_FEATURE_CMSE ) && (__ARM_FEATURE_CMSE == 3))
ARM GAS  C:\Users\ACER\AppData\Local\Temp\cclMZ9Th.s 			page 11


 188:Drivers/CMSIS/Include/cmsis_gcc.h **** /**
 189:Drivers/CMSIS/Include/cmsis_gcc.h ****   \brief   Set Control Register (non-secure)
 190:Drivers/CMSIS/Include/cmsis_gcc.h ****   \details Writes the given value to the non-secure Control Register when in secure state.
 191:Drivers/CMSIS/Include/cmsis_gcc.h ****   \param [in]    control  Control Register value to set
 192:Drivers/CMSIS/Include/cmsis_gcc.h ****  */
 193:Drivers/CMSIS/Include/cmsis_gcc.h **** __STATIC_FORCEINLINE void __TZ_set_CONTROL_NS(uint32_t control)
 194:Drivers/CMSIS/Include/cmsis_gcc.h **** {
 195:Drivers/CMSIS/Include/cmsis_gcc.h ****   __ASM volatile ("MSR control_ns, %0" : : "r" (control) : "memory");
 196:Drivers/CMSIS/Include/cmsis_gcc.h **** }
 197:Drivers/CMSIS/Include/cmsis_gcc.h **** #endif
 198:Drivers/CMSIS/Include/cmsis_gcc.h **** 
 199:Drivers/CMSIS/Include/cmsis_gcc.h **** 
 200:Drivers/CMSIS/Include/cmsis_gcc.h **** /**
 201:Drivers/CMSIS/Include/cmsis_gcc.h ****   \brief   Get IPSR Register
 202:Drivers/CMSIS/Include/cmsis_gcc.h ****   \details Returns the content of the IPSR Register.
 203:Drivers/CMSIS/Include/cmsis_gcc.h ****   \return               IPSR Register value
 204:Drivers/CMSIS/Include/cmsis_gcc.h ****  */
 205:Drivers/CMSIS/Include/cmsis_gcc.h **** __STATIC_FORCEINLINE uint32_t __get_IPSR(void)
 206:Drivers/CMSIS/Include/cmsis_gcc.h **** {
 207:Drivers/CMSIS/Include/cmsis_gcc.h ****   uint32_t result;
 208:Drivers/CMSIS/Include/cmsis_gcc.h **** 
 209:Drivers/CMSIS/Include/cmsis_gcc.h ****   __ASM volatile ("MRS %0, ipsr" : "=r" (result) );
 210:Drivers/CMSIS/Include/cmsis_gcc.h ****   return(result);
 211:Drivers/CMSIS/Include/cmsis_gcc.h **** }
 212:Drivers/CMSIS/Include/cmsis_gcc.h **** 
 213:Drivers/CMSIS/Include/cmsis_gcc.h **** 
 214:Drivers/CMSIS/Include/cmsis_gcc.h **** /**
 215:Drivers/CMSIS/Include/cmsis_gcc.h ****   \brief   Get APSR Register
 216:Drivers/CMSIS/Include/cmsis_gcc.h ****   \details Returns the content of the APSR Register.
 217:Drivers/CMSIS/Include/cmsis_gcc.h ****   \return               APSR Register value
 218:Drivers/CMSIS/Include/cmsis_gcc.h ****  */
 219:Drivers/CMSIS/Include/cmsis_gcc.h **** __STATIC_FORCEINLINE uint32_t __get_APSR(void)
 220:Drivers/CMSIS/Include/cmsis_gcc.h **** {
 221:Drivers/CMSIS/Include/cmsis_gcc.h ****   uint32_t result;
 222:Drivers/CMSIS/Include/cmsis_gcc.h **** 
 223:Drivers/CMSIS/Include/cmsis_gcc.h ****   __ASM volatile ("MRS %0, apsr" : "=r" (result) );
 224:Drivers/CMSIS/Include/cmsis_gcc.h ****   return(result);
 225:Drivers/CMSIS/Include/cmsis_gcc.h **** }
 226:Drivers/CMSIS/Include/cmsis_gcc.h **** 
 227:Drivers/CMSIS/Include/cmsis_gcc.h **** 
 228:Drivers/CMSIS/Include/cmsis_gcc.h **** /**
 229:Drivers/CMSIS/Include/cmsis_gcc.h ****   \brief   Get xPSR Register
 230:Drivers/CMSIS/Include/cmsis_gcc.h ****   \details Returns the content of the xPSR Register.
 231:Drivers/CMSIS/Include/cmsis_gcc.h ****   \return               xPSR Register value
 232:Drivers/CMSIS/Include/cmsis_gcc.h ****  */
 233:Drivers/CMSIS/Include/cmsis_gcc.h **** __STATIC_FORCEINLINE uint32_t __get_xPSR(void)
 234:Drivers/CMSIS/Include/cmsis_gcc.h **** {
 235:Drivers/CMSIS/Include/cmsis_gcc.h ****   uint32_t result;
 236:Drivers/CMSIS/Include/cmsis_gcc.h **** 
 237:Drivers/CMSIS/Include/cmsis_gcc.h ****   __ASM volatile ("MRS %0, xpsr" : "=r" (result) );
 238:Drivers/CMSIS/Include/cmsis_gcc.h ****   return(result);
 239:Drivers/CMSIS/Include/cmsis_gcc.h **** }
 240:Drivers/CMSIS/Include/cmsis_gcc.h **** 
 241:Drivers/CMSIS/Include/cmsis_gcc.h **** 
 242:Drivers/CMSIS/Include/cmsis_gcc.h **** /**
 243:Drivers/CMSIS/Include/cmsis_gcc.h ****   \brief   Get Process Stack Pointer
 244:Drivers/CMSIS/Include/cmsis_gcc.h ****   \details Returns the current value of the Process Stack Pointer (PSP).
ARM GAS  C:\Users\ACER\AppData\Local\Temp\cclMZ9Th.s 			page 12


 245:Drivers/CMSIS/Include/cmsis_gcc.h ****   \return               PSP Register value
 246:Drivers/CMSIS/Include/cmsis_gcc.h ****  */
 247:Drivers/CMSIS/Include/cmsis_gcc.h **** __STATIC_FORCEINLINE uint32_t __get_PSP(void)
 248:Drivers/CMSIS/Include/cmsis_gcc.h **** {
 249:Drivers/CMSIS/Include/cmsis_gcc.h ****   uint32_t result;
 250:Drivers/CMSIS/Include/cmsis_gcc.h **** 
 251:Drivers/CMSIS/Include/cmsis_gcc.h ****   __ASM volatile ("MRS %0, psp"  : "=r" (result) );
 252:Drivers/CMSIS/Include/cmsis_gcc.h ****   return(result);
 253:Drivers/CMSIS/Include/cmsis_gcc.h **** }
 254:Drivers/CMSIS/Include/cmsis_gcc.h **** 
 255:Drivers/CMSIS/Include/cmsis_gcc.h **** 
 256:Drivers/CMSIS/Include/cmsis_gcc.h **** #if (defined (__ARM_FEATURE_CMSE ) && (__ARM_FEATURE_CMSE == 3))
 257:Drivers/CMSIS/Include/cmsis_gcc.h **** /**
 258:Drivers/CMSIS/Include/cmsis_gcc.h ****   \brief   Get Process Stack Pointer (non-secure)
 259:Drivers/CMSIS/Include/cmsis_gcc.h ****   \details Returns the current value of the non-secure Process Stack Pointer (PSP) when in secure s
 260:Drivers/CMSIS/Include/cmsis_gcc.h ****   \return               PSP Register value
 261:Drivers/CMSIS/Include/cmsis_gcc.h ****  */
 262:Drivers/CMSIS/Include/cmsis_gcc.h **** __STATIC_FORCEINLINE uint32_t __TZ_get_PSP_NS(void)
 263:Drivers/CMSIS/Include/cmsis_gcc.h **** {
 264:Drivers/CMSIS/Include/cmsis_gcc.h ****   uint32_t result;
 265:Drivers/CMSIS/Include/cmsis_gcc.h **** 
 266:Drivers/CMSIS/Include/cmsis_gcc.h ****   __ASM volatile ("MRS %0, psp_ns"  : "=r" (result) );
 267:Drivers/CMSIS/Include/cmsis_gcc.h ****   return(result);
 268:Drivers/CMSIS/Include/cmsis_gcc.h **** }
 269:Drivers/CMSIS/Include/cmsis_gcc.h **** #endif
 270:Drivers/CMSIS/Include/cmsis_gcc.h **** 
 271:Drivers/CMSIS/Include/cmsis_gcc.h **** 
 272:Drivers/CMSIS/Include/cmsis_gcc.h **** /**
 273:Drivers/CMSIS/Include/cmsis_gcc.h ****   \brief   Set Process Stack Pointer
 274:Drivers/CMSIS/Include/cmsis_gcc.h ****   \details Assigns the given value to the Process Stack Pointer (PSP).
 275:Drivers/CMSIS/Include/cmsis_gcc.h ****   \param [in]    topOfProcStack  Process Stack Pointer value to set
 276:Drivers/CMSIS/Include/cmsis_gcc.h ****  */
 277:Drivers/CMSIS/Include/cmsis_gcc.h **** __STATIC_FORCEINLINE void __set_PSP(uint32_t topOfProcStack)
 278:Drivers/CMSIS/Include/cmsis_gcc.h **** {
 279:Drivers/CMSIS/Include/cmsis_gcc.h ****   __ASM volatile ("MSR psp, %0" : : "r" (topOfProcStack) : );
 280:Drivers/CMSIS/Include/cmsis_gcc.h **** }
 281:Drivers/CMSIS/Include/cmsis_gcc.h **** 
 282:Drivers/CMSIS/Include/cmsis_gcc.h **** 
 283:Drivers/CMSIS/Include/cmsis_gcc.h **** #if (defined (__ARM_FEATURE_CMSE ) && (__ARM_FEATURE_CMSE == 3))
 284:Drivers/CMSIS/Include/cmsis_gcc.h **** /**
 285:Drivers/CMSIS/Include/cmsis_gcc.h ****   \brief   Set Process Stack Pointer (non-secure)
 286:Drivers/CMSIS/Include/cmsis_gcc.h ****   \details Assigns the given value to the non-secure Process Stack Pointer (PSP) when in secure sta
 287:Drivers/CMSIS/Include/cmsis_gcc.h ****   \param [in]    topOfProcStack  Process Stack Pointer value to set
 288:Drivers/CMSIS/Include/cmsis_gcc.h ****  */
 289:Drivers/CMSIS/Include/cmsis_gcc.h **** __STATIC_FORCEINLINE void __TZ_set_PSP_NS(uint32_t topOfProcStack)
 290:Drivers/CMSIS/Include/cmsis_gcc.h **** {
 291:Drivers/CMSIS/Include/cmsis_gcc.h ****   __ASM volatile ("MSR psp_ns, %0" : : "r" (topOfProcStack) : );
 292:Drivers/CMSIS/Include/cmsis_gcc.h **** }
 293:Drivers/CMSIS/Include/cmsis_gcc.h **** #endif
 294:Drivers/CMSIS/Include/cmsis_gcc.h **** 
 295:Drivers/CMSIS/Include/cmsis_gcc.h **** 
 296:Drivers/CMSIS/Include/cmsis_gcc.h **** /**
 297:Drivers/CMSIS/Include/cmsis_gcc.h ****   \brief   Get Main Stack Pointer
 298:Drivers/CMSIS/Include/cmsis_gcc.h ****   \details Returns the current value of the Main Stack Pointer (MSP).
 299:Drivers/CMSIS/Include/cmsis_gcc.h ****   \return               MSP Register value
 300:Drivers/CMSIS/Include/cmsis_gcc.h ****  */
 301:Drivers/CMSIS/Include/cmsis_gcc.h **** __STATIC_FORCEINLINE uint32_t __get_MSP(void)
ARM GAS  C:\Users\ACER\AppData\Local\Temp\cclMZ9Th.s 			page 13


 302:Drivers/CMSIS/Include/cmsis_gcc.h **** {
 303:Drivers/CMSIS/Include/cmsis_gcc.h ****   uint32_t result;
 304:Drivers/CMSIS/Include/cmsis_gcc.h **** 
 305:Drivers/CMSIS/Include/cmsis_gcc.h ****   __ASM volatile ("MRS %0, msp" : "=r" (result) );
 306:Drivers/CMSIS/Include/cmsis_gcc.h ****   return(result);
 307:Drivers/CMSIS/Include/cmsis_gcc.h **** }
 308:Drivers/CMSIS/Include/cmsis_gcc.h **** 
 309:Drivers/CMSIS/Include/cmsis_gcc.h **** 
 310:Drivers/CMSIS/Include/cmsis_gcc.h **** #if (defined (__ARM_FEATURE_CMSE ) && (__ARM_FEATURE_CMSE == 3))
 311:Drivers/CMSIS/Include/cmsis_gcc.h **** /**
 312:Drivers/CMSIS/Include/cmsis_gcc.h ****   \brief   Get Main Stack Pointer (non-secure)
 313:Drivers/CMSIS/Include/cmsis_gcc.h ****   \details Returns the current value of the non-secure Main Stack Pointer (MSP) when in secure stat
 314:Drivers/CMSIS/Include/cmsis_gcc.h ****   \return               MSP Register value
 315:Drivers/CMSIS/Include/cmsis_gcc.h ****  */
 316:Drivers/CMSIS/Include/cmsis_gcc.h **** __STATIC_FORCEINLINE uint32_t __TZ_get_MSP_NS(void)
 317:Drivers/CMSIS/Include/cmsis_gcc.h **** {
 318:Drivers/CMSIS/Include/cmsis_gcc.h ****   uint32_t result;
 319:Drivers/CMSIS/Include/cmsis_gcc.h **** 
 320:Drivers/CMSIS/Include/cmsis_gcc.h ****   __ASM volatile ("MRS %0, msp_ns" : "=r" (result) );
 321:Drivers/CMSIS/Include/cmsis_gcc.h ****   return(result);
 322:Drivers/CMSIS/Include/cmsis_gcc.h **** }
 323:Drivers/CMSIS/Include/cmsis_gcc.h **** #endif
 324:Drivers/CMSIS/Include/cmsis_gcc.h **** 
 325:Drivers/CMSIS/Include/cmsis_gcc.h **** 
 326:Drivers/CMSIS/Include/cmsis_gcc.h **** /**
 327:Drivers/CMSIS/Include/cmsis_gcc.h ****   \brief   Set Main Stack Pointer
 328:Drivers/CMSIS/Include/cmsis_gcc.h ****   \details Assigns the given value to the Main Stack Pointer (MSP).
 329:Drivers/CMSIS/Include/cmsis_gcc.h ****   \param [in]    topOfMainStack  Main Stack Pointer value to set
 330:Drivers/CMSIS/Include/cmsis_gcc.h ****  */
 331:Drivers/CMSIS/Include/cmsis_gcc.h **** __STATIC_FORCEINLINE void __set_MSP(uint32_t topOfMainStack)
 332:Drivers/CMSIS/Include/cmsis_gcc.h **** {
 333:Drivers/CMSIS/Include/cmsis_gcc.h ****   __ASM volatile ("MSR msp, %0" : : "r" (topOfMainStack) : );
 334:Drivers/CMSIS/Include/cmsis_gcc.h **** }
 335:Drivers/CMSIS/Include/cmsis_gcc.h **** 
 336:Drivers/CMSIS/Include/cmsis_gcc.h **** 
 337:Drivers/CMSIS/Include/cmsis_gcc.h **** #if (defined (__ARM_FEATURE_CMSE ) && (__ARM_FEATURE_CMSE == 3))
 338:Drivers/CMSIS/Include/cmsis_gcc.h **** /**
 339:Drivers/CMSIS/Include/cmsis_gcc.h ****   \brief   Set Main Stack Pointer (non-secure)
 340:Drivers/CMSIS/Include/cmsis_gcc.h ****   \details Assigns the given value to the non-secure Main Stack Pointer (MSP) when in secure state.
 341:Drivers/CMSIS/Include/cmsis_gcc.h ****   \param [in]    topOfMainStack  Main Stack Pointer value to set
 342:Drivers/CMSIS/Include/cmsis_gcc.h ****  */
 343:Drivers/CMSIS/Include/cmsis_gcc.h **** __STATIC_FORCEINLINE void __TZ_set_MSP_NS(uint32_t topOfMainStack)
 344:Drivers/CMSIS/Include/cmsis_gcc.h **** {
 345:Drivers/CMSIS/Include/cmsis_gcc.h ****   __ASM volatile ("MSR msp_ns, %0" : : "r" (topOfMainStack) : );
 346:Drivers/CMSIS/Include/cmsis_gcc.h **** }
 347:Drivers/CMSIS/Include/cmsis_gcc.h **** #endif
 348:Drivers/CMSIS/Include/cmsis_gcc.h **** 
 349:Drivers/CMSIS/Include/cmsis_gcc.h **** 
 350:Drivers/CMSIS/Include/cmsis_gcc.h **** #if (defined (__ARM_FEATURE_CMSE ) && (__ARM_FEATURE_CMSE == 3))
 351:Drivers/CMSIS/Include/cmsis_gcc.h **** /**
 352:Drivers/CMSIS/Include/cmsis_gcc.h ****   \brief   Get Stack Pointer (non-secure)
 353:Drivers/CMSIS/Include/cmsis_gcc.h ****   \details Returns the current value of the non-secure Stack Pointer (SP) when in secure state.
 354:Drivers/CMSIS/Include/cmsis_gcc.h ****   \return               SP Register value
 355:Drivers/CMSIS/Include/cmsis_gcc.h ****  */
 356:Drivers/CMSIS/Include/cmsis_gcc.h **** __STATIC_FORCEINLINE uint32_t __TZ_get_SP_NS(void)
 357:Drivers/CMSIS/Include/cmsis_gcc.h **** {
 358:Drivers/CMSIS/Include/cmsis_gcc.h ****   uint32_t result;
ARM GAS  C:\Users\ACER\AppData\Local\Temp\cclMZ9Th.s 			page 14


 359:Drivers/CMSIS/Include/cmsis_gcc.h **** 
 360:Drivers/CMSIS/Include/cmsis_gcc.h ****   __ASM volatile ("MRS %0, sp_ns" : "=r" (result) );
 361:Drivers/CMSIS/Include/cmsis_gcc.h ****   return(result);
 362:Drivers/CMSIS/Include/cmsis_gcc.h **** }
 363:Drivers/CMSIS/Include/cmsis_gcc.h **** 
 364:Drivers/CMSIS/Include/cmsis_gcc.h **** 
 365:Drivers/CMSIS/Include/cmsis_gcc.h **** /**
 366:Drivers/CMSIS/Include/cmsis_gcc.h ****   \brief   Set Stack Pointer (non-secure)
 367:Drivers/CMSIS/Include/cmsis_gcc.h ****   \details Assigns the given value to the non-secure Stack Pointer (SP) when in secure state.
 368:Drivers/CMSIS/Include/cmsis_gcc.h ****   \param [in]    topOfStack  Stack Pointer value to set
 369:Drivers/CMSIS/Include/cmsis_gcc.h ****  */
 370:Drivers/CMSIS/Include/cmsis_gcc.h **** __STATIC_FORCEINLINE void __TZ_set_SP_NS(uint32_t topOfStack)
 371:Drivers/CMSIS/Include/cmsis_gcc.h **** {
 372:Drivers/CMSIS/Include/cmsis_gcc.h ****   __ASM volatile ("MSR sp_ns, %0" : : "r" (topOfStack) : );
 373:Drivers/CMSIS/Include/cmsis_gcc.h **** }
 374:Drivers/CMSIS/Include/cmsis_gcc.h **** #endif
 375:Drivers/CMSIS/Include/cmsis_gcc.h **** 
 376:Drivers/CMSIS/Include/cmsis_gcc.h **** 
 377:Drivers/CMSIS/Include/cmsis_gcc.h **** /**
 378:Drivers/CMSIS/Include/cmsis_gcc.h ****   \brief   Get Priority Mask
 379:Drivers/CMSIS/Include/cmsis_gcc.h ****   \details Returns the current state of the priority mask bit from the Priority Mask Register.
 380:Drivers/CMSIS/Include/cmsis_gcc.h ****   \return               Priority Mask value
 381:Drivers/CMSIS/Include/cmsis_gcc.h ****  */
 382:Drivers/CMSIS/Include/cmsis_gcc.h **** __STATIC_FORCEINLINE uint32_t __get_PRIMASK(void)
 383:Drivers/CMSIS/Include/cmsis_gcc.h **** {
 384:Drivers/CMSIS/Include/cmsis_gcc.h ****   uint32_t result;
 385:Drivers/CMSIS/Include/cmsis_gcc.h **** 
 386:Drivers/CMSIS/Include/cmsis_gcc.h ****   __ASM volatile ("MRS %0, primask" : "=r" (result) :: "memory");
 387:Drivers/CMSIS/Include/cmsis_gcc.h ****   return(result);
 388:Drivers/CMSIS/Include/cmsis_gcc.h **** }
 389:Drivers/CMSIS/Include/cmsis_gcc.h **** 
 390:Drivers/CMSIS/Include/cmsis_gcc.h **** 
 391:Drivers/CMSIS/Include/cmsis_gcc.h **** #if (defined (__ARM_FEATURE_CMSE ) && (__ARM_FEATURE_CMSE == 3))
 392:Drivers/CMSIS/Include/cmsis_gcc.h **** /**
 393:Drivers/CMSIS/Include/cmsis_gcc.h ****   \brief   Get Priority Mask (non-secure)
 394:Drivers/CMSIS/Include/cmsis_gcc.h ****   \details Returns the current state of the non-secure priority mask bit from the Priority Mask Reg
 395:Drivers/CMSIS/Include/cmsis_gcc.h ****   \return               Priority Mask value
 396:Drivers/CMSIS/Include/cmsis_gcc.h ****  */
 397:Drivers/CMSIS/Include/cmsis_gcc.h **** __STATIC_FORCEINLINE uint32_t __TZ_get_PRIMASK_NS(void)
 398:Drivers/CMSIS/Include/cmsis_gcc.h **** {
 399:Drivers/CMSIS/Include/cmsis_gcc.h ****   uint32_t result;
 400:Drivers/CMSIS/Include/cmsis_gcc.h **** 
 401:Drivers/CMSIS/Include/cmsis_gcc.h ****   __ASM volatile ("MRS %0, primask_ns" : "=r" (result) :: "memory");
 402:Drivers/CMSIS/Include/cmsis_gcc.h ****   return(result);
 403:Drivers/CMSIS/Include/cmsis_gcc.h **** }
 404:Drivers/CMSIS/Include/cmsis_gcc.h **** #endif
 405:Drivers/CMSIS/Include/cmsis_gcc.h **** 
 406:Drivers/CMSIS/Include/cmsis_gcc.h **** 
 407:Drivers/CMSIS/Include/cmsis_gcc.h **** /**
 408:Drivers/CMSIS/Include/cmsis_gcc.h ****   \brief   Set Priority Mask
 409:Drivers/CMSIS/Include/cmsis_gcc.h ****   \details Assigns the given value to the Priority Mask Register.
 410:Drivers/CMSIS/Include/cmsis_gcc.h ****   \param [in]    priMask  Priority Mask
 411:Drivers/CMSIS/Include/cmsis_gcc.h ****  */
 412:Drivers/CMSIS/Include/cmsis_gcc.h **** __STATIC_FORCEINLINE void __set_PRIMASK(uint32_t priMask)
 413:Drivers/CMSIS/Include/cmsis_gcc.h **** {
 414:Drivers/CMSIS/Include/cmsis_gcc.h ****   __ASM volatile ("MSR primask, %0" : : "r" (priMask) : "memory");
 415:Drivers/CMSIS/Include/cmsis_gcc.h **** }
ARM GAS  C:\Users\ACER\AppData\Local\Temp\cclMZ9Th.s 			page 15


 416:Drivers/CMSIS/Include/cmsis_gcc.h **** 
 417:Drivers/CMSIS/Include/cmsis_gcc.h **** 
 418:Drivers/CMSIS/Include/cmsis_gcc.h **** #if (defined (__ARM_FEATURE_CMSE ) && (__ARM_FEATURE_CMSE == 3))
 419:Drivers/CMSIS/Include/cmsis_gcc.h **** /**
 420:Drivers/CMSIS/Include/cmsis_gcc.h ****   \brief   Set Priority Mask (non-secure)
 421:Drivers/CMSIS/Include/cmsis_gcc.h ****   \details Assigns the given value to the non-secure Priority Mask Register when in secure state.
 422:Drivers/CMSIS/Include/cmsis_gcc.h ****   \param [in]    priMask  Priority Mask
 423:Drivers/CMSIS/Include/cmsis_gcc.h ****  */
 424:Drivers/CMSIS/Include/cmsis_gcc.h **** __STATIC_FORCEINLINE void __TZ_set_PRIMASK_NS(uint32_t priMask)
 425:Drivers/CMSIS/Include/cmsis_gcc.h **** {
 426:Drivers/CMSIS/Include/cmsis_gcc.h ****   __ASM volatile ("MSR primask_ns, %0" : : "r" (priMask) : "memory");
 427:Drivers/CMSIS/Include/cmsis_gcc.h **** }
 428:Drivers/CMSIS/Include/cmsis_gcc.h **** #endif
 429:Drivers/CMSIS/Include/cmsis_gcc.h **** 
 430:Drivers/CMSIS/Include/cmsis_gcc.h **** 
 431:Drivers/CMSIS/Include/cmsis_gcc.h **** #if ((defined (__ARM_ARCH_7M__      ) && (__ARM_ARCH_7M__      == 1)) || \
 432:Drivers/CMSIS/Include/cmsis_gcc.h ****      (defined (__ARM_ARCH_7EM__     ) && (__ARM_ARCH_7EM__     == 1)) || \
 433:Drivers/CMSIS/Include/cmsis_gcc.h ****      (defined (__ARM_ARCH_8M_MAIN__ ) && (__ARM_ARCH_8M_MAIN__ == 1))    )
 434:Drivers/CMSIS/Include/cmsis_gcc.h **** /**
 435:Drivers/CMSIS/Include/cmsis_gcc.h ****   \brief   Enable FIQ
 436:Drivers/CMSIS/Include/cmsis_gcc.h ****   \details Enables FIQ interrupts by clearing the F-bit in the CPSR.
 437:Drivers/CMSIS/Include/cmsis_gcc.h ****            Can only be executed in Privileged modes.
 438:Drivers/CMSIS/Include/cmsis_gcc.h ****  */
 439:Drivers/CMSIS/Include/cmsis_gcc.h **** __STATIC_FORCEINLINE void __enable_fault_irq(void)
 440:Drivers/CMSIS/Include/cmsis_gcc.h **** {
 441:Drivers/CMSIS/Include/cmsis_gcc.h ****   __ASM volatile ("cpsie f" : : : "memory");
 442:Drivers/CMSIS/Include/cmsis_gcc.h **** }
 443:Drivers/CMSIS/Include/cmsis_gcc.h **** 
 444:Drivers/CMSIS/Include/cmsis_gcc.h **** 
 445:Drivers/CMSIS/Include/cmsis_gcc.h **** /**
 446:Drivers/CMSIS/Include/cmsis_gcc.h ****   \brief   Disable FIQ
 447:Drivers/CMSIS/Include/cmsis_gcc.h ****   \details Disables FIQ interrupts by setting the F-bit in the CPSR.
 448:Drivers/CMSIS/Include/cmsis_gcc.h ****            Can only be executed in Privileged modes.
 449:Drivers/CMSIS/Include/cmsis_gcc.h ****  */
 450:Drivers/CMSIS/Include/cmsis_gcc.h **** __STATIC_FORCEINLINE void __disable_fault_irq(void)
 451:Drivers/CMSIS/Include/cmsis_gcc.h **** {
 452:Drivers/CMSIS/Include/cmsis_gcc.h ****   __ASM volatile ("cpsid f" : : : "memory");
 453:Drivers/CMSIS/Include/cmsis_gcc.h **** }
 454:Drivers/CMSIS/Include/cmsis_gcc.h **** 
 455:Drivers/CMSIS/Include/cmsis_gcc.h **** 
 456:Drivers/CMSIS/Include/cmsis_gcc.h **** /**
 457:Drivers/CMSIS/Include/cmsis_gcc.h ****   \brief   Get Base Priority
 458:Drivers/CMSIS/Include/cmsis_gcc.h ****   \details Returns the current value of the Base Priority register.
 459:Drivers/CMSIS/Include/cmsis_gcc.h ****   \return               Base Priority register value
 460:Drivers/CMSIS/Include/cmsis_gcc.h ****  */
 461:Drivers/CMSIS/Include/cmsis_gcc.h **** __STATIC_FORCEINLINE uint32_t __get_BASEPRI(void)
 462:Drivers/CMSIS/Include/cmsis_gcc.h **** {
 463:Drivers/CMSIS/Include/cmsis_gcc.h ****   uint32_t result;
 464:Drivers/CMSIS/Include/cmsis_gcc.h **** 
 465:Drivers/CMSIS/Include/cmsis_gcc.h ****   __ASM volatile ("MRS %0, basepri" : "=r" (result) );
 466:Drivers/CMSIS/Include/cmsis_gcc.h ****   return(result);
 467:Drivers/CMSIS/Include/cmsis_gcc.h **** }
 468:Drivers/CMSIS/Include/cmsis_gcc.h **** 
 469:Drivers/CMSIS/Include/cmsis_gcc.h **** 
 470:Drivers/CMSIS/Include/cmsis_gcc.h **** #if (defined (__ARM_FEATURE_CMSE ) && (__ARM_FEATURE_CMSE == 3))
 471:Drivers/CMSIS/Include/cmsis_gcc.h **** /**
 472:Drivers/CMSIS/Include/cmsis_gcc.h ****   \brief   Get Base Priority (non-secure)
ARM GAS  C:\Users\ACER\AppData\Local\Temp\cclMZ9Th.s 			page 16


 473:Drivers/CMSIS/Include/cmsis_gcc.h ****   \details Returns the current value of the non-secure Base Priority register when in secure state.
 474:Drivers/CMSIS/Include/cmsis_gcc.h ****   \return               Base Priority register value
 475:Drivers/CMSIS/Include/cmsis_gcc.h ****  */
 476:Drivers/CMSIS/Include/cmsis_gcc.h **** __STATIC_FORCEINLINE uint32_t __TZ_get_BASEPRI_NS(void)
 477:Drivers/CMSIS/Include/cmsis_gcc.h **** {
 478:Drivers/CMSIS/Include/cmsis_gcc.h ****   uint32_t result;
 479:Drivers/CMSIS/Include/cmsis_gcc.h **** 
 480:Drivers/CMSIS/Include/cmsis_gcc.h ****   __ASM volatile ("MRS %0, basepri_ns" : "=r" (result) );
 481:Drivers/CMSIS/Include/cmsis_gcc.h ****   return(result);
 482:Drivers/CMSIS/Include/cmsis_gcc.h **** }
 483:Drivers/CMSIS/Include/cmsis_gcc.h **** #endif
 484:Drivers/CMSIS/Include/cmsis_gcc.h **** 
 485:Drivers/CMSIS/Include/cmsis_gcc.h **** 
 486:Drivers/CMSIS/Include/cmsis_gcc.h **** /**
 487:Drivers/CMSIS/Include/cmsis_gcc.h ****   \brief   Set Base Priority
 488:Drivers/CMSIS/Include/cmsis_gcc.h ****   \details Assigns the given value to the Base Priority register.
 489:Drivers/CMSIS/Include/cmsis_gcc.h ****   \param [in]    basePri  Base Priority value to set
 490:Drivers/CMSIS/Include/cmsis_gcc.h ****  */
 491:Drivers/CMSIS/Include/cmsis_gcc.h **** __STATIC_FORCEINLINE void __set_BASEPRI(uint32_t basePri)
 492:Drivers/CMSIS/Include/cmsis_gcc.h **** {
 493:Drivers/CMSIS/Include/cmsis_gcc.h ****   __ASM volatile ("MSR basepri, %0" : : "r" (basePri) : "memory");
 494:Drivers/CMSIS/Include/cmsis_gcc.h **** }
 495:Drivers/CMSIS/Include/cmsis_gcc.h **** 
 496:Drivers/CMSIS/Include/cmsis_gcc.h **** 
 497:Drivers/CMSIS/Include/cmsis_gcc.h **** #if (defined (__ARM_FEATURE_CMSE ) && (__ARM_FEATURE_CMSE == 3))
 498:Drivers/CMSIS/Include/cmsis_gcc.h **** /**
 499:Drivers/CMSIS/Include/cmsis_gcc.h ****   \brief   Set Base Priority (non-secure)
 500:Drivers/CMSIS/Include/cmsis_gcc.h ****   \details Assigns the given value to the non-secure Base Priority register when in secure state.
 501:Drivers/CMSIS/Include/cmsis_gcc.h ****   \param [in]    basePri  Base Priority value to set
 502:Drivers/CMSIS/Include/cmsis_gcc.h ****  */
 503:Drivers/CMSIS/Include/cmsis_gcc.h **** __STATIC_FORCEINLINE void __TZ_set_BASEPRI_NS(uint32_t basePri)
 504:Drivers/CMSIS/Include/cmsis_gcc.h **** {
 505:Drivers/CMSIS/Include/cmsis_gcc.h ****   __ASM volatile ("MSR basepri_ns, %0" : : "r" (basePri) : "memory");
 506:Drivers/CMSIS/Include/cmsis_gcc.h **** }
 507:Drivers/CMSIS/Include/cmsis_gcc.h **** #endif
 508:Drivers/CMSIS/Include/cmsis_gcc.h **** 
 509:Drivers/CMSIS/Include/cmsis_gcc.h **** 
 510:Drivers/CMSIS/Include/cmsis_gcc.h **** /**
 511:Drivers/CMSIS/Include/cmsis_gcc.h ****   \brief   Set Base Priority with condition
 512:Drivers/CMSIS/Include/cmsis_gcc.h ****   \details Assigns the given value to the Base Priority register only if BASEPRI masking is disable
 513:Drivers/CMSIS/Include/cmsis_gcc.h ****            or the new value increases the BASEPRI priority level.
 514:Drivers/CMSIS/Include/cmsis_gcc.h ****   \param [in]    basePri  Base Priority value to set
 515:Drivers/CMSIS/Include/cmsis_gcc.h ****  */
 516:Drivers/CMSIS/Include/cmsis_gcc.h **** __STATIC_FORCEINLINE void __set_BASEPRI_MAX(uint32_t basePri)
 517:Drivers/CMSIS/Include/cmsis_gcc.h **** {
 518:Drivers/CMSIS/Include/cmsis_gcc.h ****   __ASM volatile ("MSR basepri_max, %0" : : "r" (basePri) : "memory");
 519:Drivers/CMSIS/Include/cmsis_gcc.h **** }
 520:Drivers/CMSIS/Include/cmsis_gcc.h **** 
 521:Drivers/CMSIS/Include/cmsis_gcc.h **** 
 522:Drivers/CMSIS/Include/cmsis_gcc.h **** /**
 523:Drivers/CMSIS/Include/cmsis_gcc.h ****   \brief   Get Fault Mask
 524:Drivers/CMSIS/Include/cmsis_gcc.h ****   \details Returns the current value of the Fault Mask register.
 525:Drivers/CMSIS/Include/cmsis_gcc.h ****   \return               Fault Mask register value
 526:Drivers/CMSIS/Include/cmsis_gcc.h ****  */
 527:Drivers/CMSIS/Include/cmsis_gcc.h **** __STATIC_FORCEINLINE uint32_t __get_FAULTMASK(void)
 528:Drivers/CMSIS/Include/cmsis_gcc.h **** {
 529:Drivers/CMSIS/Include/cmsis_gcc.h ****   uint32_t result;
ARM GAS  C:\Users\ACER\AppData\Local\Temp\cclMZ9Th.s 			page 17


 530:Drivers/CMSIS/Include/cmsis_gcc.h **** 
 531:Drivers/CMSIS/Include/cmsis_gcc.h ****   __ASM volatile ("MRS %0, faultmask" : "=r" (result) );
 532:Drivers/CMSIS/Include/cmsis_gcc.h ****   return(result);
 533:Drivers/CMSIS/Include/cmsis_gcc.h **** }
 534:Drivers/CMSIS/Include/cmsis_gcc.h **** 
 535:Drivers/CMSIS/Include/cmsis_gcc.h **** 
 536:Drivers/CMSIS/Include/cmsis_gcc.h **** #if (defined (__ARM_FEATURE_CMSE ) && (__ARM_FEATURE_CMSE == 3))
 537:Drivers/CMSIS/Include/cmsis_gcc.h **** /**
 538:Drivers/CMSIS/Include/cmsis_gcc.h ****   \brief   Get Fault Mask (non-secure)
 539:Drivers/CMSIS/Include/cmsis_gcc.h ****   \details Returns the current value of the non-secure Fault Mask register when in secure state.
 540:Drivers/CMSIS/Include/cmsis_gcc.h ****   \return               Fault Mask register value
 541:Drivers/CMSIS/Include/cmsis_gcc.h ****  */
 542:Drivers/CMSIS/Include/cmsis_gcc.h **** __STATIC_FORCEINLINE uint32_t __TZ_get_FAULTMASK_NS(void)
 543:Drivers/CMSIS/Include/cmsis_gcc.h **** {
 544:Drivers/CMSIS/Include/cmsis_gcc.h ****   uint32_t result;
 545:Drivers/CMSIS/Include/cmsis_gcc.h **** 
 546:Drivers/CMSIS/Include/cmsis_gcc.h ****   __ASM volatile ("MRS %0, faultmask_ns" : "=r" (result) );
 547:Drivers/CMSIS/Include/cmsis_gcc.h ****   return(result);
 548:Drivers/CMSIS/Include/cmsis_gcc.h **** }
 549:Drivers/CMSIS/Include/cmsis_gcc.h **** #endif
 550:Drivers/CMSIS/Include/cmsis_gcc.h **** 
 551:Drivers/CMSIS/Include/cmsis_gcc.h **** 
 552:Drivers/CMSIS/Include/cmsis_gcc.h **** /**
 553:Drivers/CMSIS/Include/cmsis_gcc.h ****   \brief   Set Fault Mask
 554:Drivers/CMSIS/Include/cmsis_gcc.h ****   \details Assigns the given value to the Fault Mask register.
 555:Drivers/CMSIS/Include/cmsis_gcc.h ****   \param [in]    faultMask  Fault Mask value to set
 556:Drivers/CMSIS/Include/cmsis_gcc.h ****  */
 557:Drivers/CMSIS/Include/cmsis_gcc.h **** __STATIC_FORCEINLINE void __set_FAULTMASK(uint32_t faultMask)
 558:Drivers/CMSIS/Include/cmsis_gcc.h **** {
 559:Drivers/CMSIS/Include/cmsis_gcc.h ****   __ASM volatile ("MSR faultmask, %0" : : "r" (faultMask) : "memory");
 560:Drivers/CMSIS/Include/cmsis_gcc.h **** }
 561:Drivers/CMSIS/Include/cmsis_gcc.h **** 
 562:Drivers/CMSIS/Include/cmsis_gcc.h **** 
 563:Drivers/CMSIS/Include/cmsis_gcc.h **** #if (defined (__ARM_FEATURE_CMSE ) && (__ARM_FEATURE_CMSE == 3))
 564:Drivers/CMSIS/Include/cmsis_gcc.h **** /**
 565:Drivers/CMSIS/Include/cmsis_gcc.h ****   \brief   Set Fault Mask (non-secure)
 566:Drivers/CMSIS/Include/cmsis_gcc.h ****   \details Assigns the given value to the non-secure Fault Mask register when in secure state.
 567:Drivers/CMSIS/Include/cmsis_gcc.h ****   \param [in]    faultMask  Fault Mask value to set
 568:Drivers/CMSIS/Include/cmsis_gcc.h ****  */
 569:Drivers/CMSIS/Include/cmsis_gcc.h **** __STATIC_FORCEINLINE void __TZ_set_FAULTMASK_NS(uint32_t faultMask)
 570:Drivers/CMSIS/Include/cmsis_gcc.h **** {
 571:Drivers/CMSIS/Include/cmsis_gcc.h ****   __ASM volatile ("MSR faultmask_ns, %0" : : "r" (faultMask) : "memory");
 572:Drivers/CMSIS/Include/cmsis_gcc.h **** }
 573:Drivers/CMSIS/Include/cmsis_gcc.h **** #endif
 574:Drivers/CMSIS/Include/cmsis_gcc.h **** 
 575:Drivers/CMSIS/Include/cmsis_gcc.h **** #endif /* ((defined (__ARM_ARCH_7M__      ) && (__ARM_ARCH_7M__      == 1)) || \
 576:Drivers/CMSIS/Include/cmsis_gcc.h ****            (defined (__ARM_ARCH_7EM__     ) && (__ARM_ARCH_7EM__     == 1)) || \
 577:Drivers/CMSIS/Include/cmsis_gcc.h ****            (defined (__ARM_ARCH_8M_MAIN__ ) && (__ARM_ARCH_8M_MAIN__ == 1))    ) */
 578:Drivers/CMSIS/Include/cmsis_gcc.h **** 
 579:Drivers/CMSIS/Include/cmsis_gcc.h **** 
 580:Drivers/CMSIS/Include/cmsis_gcc.h **** #if ((defined (__ARM_ARCH_8M_MAIN__ ) && (__ARM_ARCH_8M_MAIN__ == 1)) || \
 581:Drivers/CMSIS/Include/cmsis_gcc.h ****      (defined (__ARM_ARCH_8M_BASE__ ) && (__ARM_ARCH_8M_BASE__ == 1))    )
 582:Drivers/CMSIS/Include/cmsis_gcc.h **** 
 583:Drivers/CMSIS/Include/cmsis_gcc.h **** /**
 584:Drivers/CMSIS/Include/cmsis_gcc.h ****   \brief   Get Process Stack Pointer Limit
 585:Drivers/CMSIS/Include/cmsis_gcc.h ****   Devices without ARMv8-M Main Extensions (i.e. Cortex-M23) lack the non-secure
 586:Drivers/CMSIS/Include/cmsis_gcc.h ****   Stack Pointer Limit register hence zero is returned always in non-secure
ARM GAS  C:\Users\ACER\AppData\Local\Temp\cclMZ9Th.s 			page 18


 587:Drivers/CMSIS/Include/cmsis_gcc.h ****   mode.
 588:Drivers/CMSIS/Include/cmsis_gcc.h ****   
 589:Drivers/CMSIS/Include/cmsis_gcc.h ****   \details Returns the current value of the Process Stack Pointer Limit (PSPLIM).
 590:Drivers/CMSIS/Include/cmsis_gcc.h ****   \return               PSPLIM Register value
 591:Drivers/CMSIS/Include/cmsis_gcc.h ****  */
 592:Drivers/CMSIS/Include/cmsis_gcc.h **** __STATIC_FORCEINLINE uint32_t __get_PSPLIM(void)
 593:Drivers/CMSIS/Include/cmsis_gcc.h **** {
 594:Drivers/CMSIS/Include/cmsis_gcc.h **** #if (!(defined (__ARM_ARCH_8M_MAIN__ ) && (__ARM_ARCH_8M_MAIN__ == 1)) && \
 595:Drivers/CMSIS/Include/cmsis_gcc.h ****     (!defined (__ARM_FEATURE_CMSE) || (__ARM_FEATURE_CMSE < 3)))
 596:Drivers/CMSIS/Include/cmsis_gcc.h ****     // without main extensions, the non-secure PSPLIM is RAZ/WI
 597:Drivers/CMSIS/Include/cmsis_gcc.h ****   return 0U;
 598:Drivers/CMSIS/Include/cmsis_gcc.h **** #else
 599:Drivers/CMSIS/Include/cmsis_gcc.h ****   uint32_t result;
 600:Drivers/CMSIS/Include/cmsis_gcc.h ****   __ASM volatile ("MRS %0, psplim"  : "=r" (result) );
 601:Drivers/CMSIS/Include/cmsis_gcc.h ****   return result;
 602:Drivers/CMSIS/Include/cmsis_gcc.h **** #endif
 603:Drivers/CMSIS/Include/cmsis_gcc.h **** }
 604:Drivers/CMSIS/Include/cmsis_gcc.h **** 
 605:Drivers/CMSIS/Include/cmsis_gcc.h **** #if (defined (__ARM_FEATURE_CMSE) && (__ARM_FEATURE_CMSE == 3))
 606:Drivers/CMSIS/Include/cmsis_gcc.h **** /**
 607:Drivers/CMSIS/Include/cmsis_gcc.h ****   \brief   Get Process Stack Pointer Limit (non-secure)
 608:Drivers/CMSIS/Include/cmsis_gcc.h ****   Devices without ARMv8-M Main Extensions (i.e. Cortex-M23) lack the non-secure
 609:Drivers/CMSIS/Include/cmsis_gcc.h ****   Stack Pointer Limit register hence zero is returned always.
 610:Drivers/CMSIS/Include/cmsis_gcc.h **** 
 611:Drivers/CMSIS/Include/cmsis_gcc.h ****   \details Returns the current value of the non-secure Process Stack Pointer Limit (PSPLIM) when in
 612:Drivers/CMSIS/Include/cmsis_gcc.h ****   \return               PSPLIM Register value
 613:Drivers/CMSIS/Include/cmsis_gcc.h ****  */
 614:Drivers/CMSIS/Include/cmsis_gcc.h **** __STATIC_FORCEINLINE uint32_t __TZ_get_PSPLIM_NS(void)
 615:Drivers/CMSIS/Include/cmsis_gcc.h **** {
 616:Drivers/CMSIS/Include/cmsis_gcc.h **** #if (!(defined (__ARM_ARCH_8M_MAIN__ ) && (__ARM_ARCH_8M_MAIN__ == 1)))
 617:Drivers/CMSIS/Include/cmsis_gcc.h ****   // without main extensions, the non-secure PSPLIM is RAZ/WI
 618:Drivers/CMSIS/Include/cmsis_gcc.h ****   return 0U;
 619:Drivers/CMSIS/Include/cmsis_gcc.h **** #else
 620:Drivers/CMSIS/Include/cmsis_gcc.h ****   uint32_t result;
 621:Drivers/CMSIS/Include/cmsis_gcc.h ****   __ASM volatile ("MRS %0, psplim_ns"  : "=r" (result) );
 622:Drivers/CMSIS/Include/cmsis_gcc.h ****   return result;
 623:Drivers/CMSIS/Include/cmsis_gcc.h **** #endif
 624:Drivers/CMSIS/Include/cmsis_gcc.h **** }
 625:Drivers/CMSIS/Include/cmsis_gcc.h **** #endif
 626:Drivers/CMSIS/Include/cmsis_gcc.h **** 
 627:Drivers/CMSIS/Include/cmsis_gcc.h **** 
 628:Drivers/CMSIS/Include/cmsis_gcc.h **** /**
 629:Drivers/CMSIS/Include/cmsis_gcc.h ****   \brief   Set Process Stack Pointer Limit
 630:Drivers/CMSIS/Include/cmsis_gcc.h ****   Devices without ARMv8-M Main Extensions (i.e. Cortex-M23) lack the non-secure
 631:Drivers/CMSIS/Include/cmsis_gcc.h ****   Stack Pointer Limit register hence the write is silently ignored in non-secure
 632:Drivers/CMSIS/Include/cmsis_gcc.h ****   mode.
 633:Drivers/CMSIS/Include/cmsis_gcc.h ****   
 634:Drivers/CMSIS/Include/cmsis_gcc.h ****   \details Assigns the given value to the Process Stack Pointer Limit (PSPLIM).
 635:Drivers/CMSIS/Include/cmsis_gcc.h ****   \param [in]    ProcStackPtrLimit  Process Stack Pointer Limit value to set
 636:Drivers/CMSIS/Include/cmsis_gcc.h ****  */
 637:Drivers/CMSIS/Include/cmsis_gcc.h **** __STATIC_FORCEINLINE void __set_PSPLIM(uint32_t ProcStackPtrLimit)
 638:Drivers/CMSIS/Include/cmsis_gcc.h **** {
 639:Drivers/CMSIS/Include/cmsis_gcc.h **** #if (!(defined (__ARM_ARCH_8M_MAIN__ ) && (__ARM_ARCH_8M_MAIN__ == 1)) && \
 640:Drivers/CMSIS/Include/cmsis_gcc.h ****     (!defined (__ARM_FEATURE_CMSE) || (__ARM_FEATURE_CMSE < 3)))
 641:Drivers/CMSIS/Include/cmsis_gcc.h ****   // without main extensions, the non-secure PSPLIM is RAZ/WI
 642:Drivers/CMSIS/Include/cmsis_gcc.h ****   (void)ProcStackPtrLimit;
 643:Drivers/CMSIS/Include/cmsis_gcc.h **** #else
ARM GAS  C:\Users\ACER\AppData\Local\Temp\cclMZ9Th.s 			page 19


 644:Drivers/CMSIS/Include/cmsis_gcc.h ****   __ASM volatile ("MSR psplim, %0" : : "r" (ProcStackPtrLimit));
 645:Drivers/CMSIS/Include/cmsis_gcc.h **** #endif
 646:Drivers/CMSIS/Include/cmsis_gcc.h **** }
 647:Drivers/CMSIS/Include/cmsis_gcc.h **** 
 648:Drivers/CMSIS/Include/cmsis_gcc.h **** 
 649:Drivers/CMSIS/Include/cmsis_gcc.h **** #if (defined (__ARM_FEATURE_CMSE  ) && (__ARM_FEATURE_CMSE   == 3))
 650:Drivers/CMSIS/Include/cmsis_gcc.h **** /**
 651:Drivers/CMSIS/Include/cmsis_gcc.h ****   \brief   Set Process Stack Pointer (non-secure)
 652:Drivers/CMSIS/Include/cmsis_gcc.h ****   Devices without ARMv8-M Main Extensions (i.e. Cortex-M23) lack the non-secure
 653:Drivers/CMSIS/Include/cmsis_gcc.h ****   Stack Pointer Limit register hence the write is silently ignored.
 654:Drivers/CMSIS/Include/cmsis_gcc.h **** 
 655:Drivers/CMSIS/Include/cmsis_gcc.h ****   \details Assigns the given value to the non-secure Process Stack Pointer Limit (PSPLIM) when in s
 656:Drivers/CMSIS/Include/cmsis_gcc.h ****   \param [in]    ProcStackPtrLimit  Process Stack Pointer Limit value to set
 657:Drivers/CMSIS/Include/cmsis_gcc.h ****  */
 658:Drivers/CMSIS/Include/cmsis_gcc.h **** __STATIC_FORCEINLINE void __TZ_set_PSPLIM_NS(uint32_t ProcStackPtrLimit)
 659:Drivers/CMSIS/Include/cmsis_gcc.h **** {
 660:Drivers/CMSIS/Include/cmsis_gcc.h **** #if (!(defined (__ARM_ARCH_8M_MAIN__ ) && (__ARM_ARCH_8M_MAIN__ == 1)))
 661:Drivers/CMSIS/Include/cmsis_gcc.h ****   // without main extensions, the non-secure PSPLIM is RAZ/WI
 662:Drivers/CMSIS/Include/cmsis_gcc.h ****   (void)ProcStackPtrLimit;
 663:Drivers/CMSIS/Include/cmsis_gcc.h **** #else
 664:Drivers/CMSIS/Include/cmsis_gcc.h ****   __ASM volatile ("MSR psplim_ns, %0\n" : : "r" (ProcStackPtrLimit));
 665:Drivers/CMSIS/Include/cmsis_gcc.h **** #endif
 666:Drivers/CMSIS/Include/cmsis_gcc.h **** }
 667:Drivers/CMSIS/Include/cmsis_gcc.h **** #endif
 668:Drivers/CMSIS/Include/cmsis_gcc.h **** 
 669:Drivers/CMSIS/Include/cmsis_gcc.h **** 
 670:Drivers/CMSIS/Include/cmsis_gcc.h **** /**
 671:Drivers/CMSIS/Include/cmsis_gcc.h ****   \brief   Get Main Stack Pointer Limit
 672:Drivers/CMSIS/Include/cmsis_gcc.h ****   Devices without ARMv8-M Main Extensions (i.e. Cortex-M23) lack the non-secure
 673:Drivers/CMSIS/Include/cmsis_gcc.h ****   Stack Pointer Limit register hence zero is returned always in non-secure
 674:Drivers/CMSIS/Include/cmsis_gcc.h ****   mode.
 675:Drivers/CMSIS/Include/cmsis_gcc.h **** 
 676:Drivers/CMSIS/Include/cmsis_gcc.h ****   \details Returns the current value of the Main Stack Pointer Limit (MSPLIM).
 677:Drivers/CMSIS/Include/cmsis_gcc.h ****   \return               MSPLIM Register value
 678:Drivers/CMSIS/Include/cmsis_gcc.h ****  */
 679:Drivers/CMSIS/Include/cmsis_gcc.h **** __STATIC_FORCEINLINE uint32_t __get_MSPLIM(void)
 680:Drivers/CMSIS/Include/cmsis_gcc.h **** {
 681:Drivers/CMSIS/Include/cmsis_gcc.h **** #if (!(defined (__ARM_ARCH_8M_MAIN__ ) && (__ARM_ARCH_8M_MAIN__ == 1)) && \
 682:Drivers/CMSIS/Include/cmsis_gcc.h ****     (!defined (__ARM_FEATURE_CMSE) || (__ARM_FEATURE_CMSE < 3)))
 683:Drivers/CMSIS/Include/cmsis_gcc.h ****   // without main extensions, the non-secure MSPLIM is RAZ/WI
 684:Drivers/CMSIS/Include/cmsis_gcc.h ****   return 0U;
 685:Drivers/CMSIS/Include/cmsis_gcc.h **** #else
 686:Drivers/CMSIS/Include/cmsis_gcc.h ****   uint32_t result;
 687:Drivers/CMSIS/Include/cmsis_gcc.h ****   __ASM volatile ("MRS %0, msplim" : "=r" (result) );
 688:Drivers/CMSIS/Include/cmsis_gcc.h ****   return result;
 689:Drivers/CMSIS/Include/cmsis_gcc.h **** #endif
 690:Drivers/CMSIS/Include/cmsis_gcc.h **** }
 691:Drivers/CMSIS/Include/cmsis_gcc.h **** 
 692:Drivers/CMSIS/Include/cmsis_gcc.h **** 
 693:Drivers/CMSIS/Include/cmsis_gcc.h **** #if (defined (__ARM_FEATURE_CMSE  ) && (__ARM_FEATURE_CMSE   == 3))
 694:Drivers/CMSIS/Include/cmsis_gcc.h **** /**
 695:Drivers/CMSIS/Include/cmsis_gcc.h ****   \brief   Get Main Stack Pointer Limit (non-secure)
 696:Drivers/CMSIS/Include/cmsis_gcc.h ****   Devices without ARMv8-M Main Extensions (i.e. Cortex-M23) lack the non-secure
 697:Drivers/CMSIS/Include/cmsis_gcc.h ****   Stack Pointer Limit register hence zero is returned always.
 698:Drivers/CMSIS/Include/cmsis_gcc.h **** 
 699:Drivers/CMSIS/Include/cmsis_gcc.h ****   \details Returns the current value of the non-secure Main Stack Pointer Limit(MSPLIM) when in sec
 700:Drivers/CMSIS/Include/cmsis_gcc.h ****   \return               MSPLIM Register value
ARM GAS  C:\Users\ACER\AppData\Local\Temp\cclMZ9Th.s 			page 20


 701:Drivers/CMSIS/Include/cmsis_gcc.h ****  */
 702:Drivers/CMSIS/Include/cmsis_gcc.h **** __STATIC_FORCEINLINE uint32_t __TZ_get_MSPLIM_NS(void)
 703:Drivers/CMSIS/Include/cmsis_gcc.h **** {
 704:Drivers/CMSIS/Include/cmsis_gcc.h **** #if (!(defined (__ARM_ARCH_8M_MAIN__ ) && (__ARM_ARCH_8M_MAIN__ == 1)))
 705:Drivers/CMSIS/Include/cmsis_gcc.h ****   // without main extensions, the non-secure MSPLIM is RAZ/WI
 706:Drivers/CMSIS/Include/cmsis_gcc.h ****   return 0U;
 707:Drivers/CMSIS/Include/cmsis_gcc.h **** #else
 708:Drivers/CMSIS/Include/cmsis_gcc.h ****   uint32_t result;
 709:Drivers/CMSIS/Include/cmsis_gcc.h ****   __ASM volatile ("MRS %0, msplim_ns" : "=r" (result) );
 710:Drivers/CMSIS/Include/cmsis_gcc.h ****   return result;
 711:Drivers/CMSIS/Include/cmsis_gcc.h **** #endif
 712:Drivers/CMSIS/Include/cmsis_gcc.h **** }
 713:Drivers/CMSIS/Include/cmsis_gcc.h **** #endif
 714:Drivers/CMSIS/Include/cmsis_gcc.h **** 
 715:Drivers/CMSIS/Include/cmsis_gcc.h **** 
 716:Drivers/CMSIS/Include/cmsis_gcc.h **** /**
 717:Drivers/CMSIS/Include/cmsis_gcc.h ****   \brief   Set Main Stack Pointer Limit
 718:Drivers/CMSIS/Include/cmsis_gcc.h ****   Devices without ARMv8-M Main Extensions (i.e. Cortex-M23) lack the non-secure
 719:Drivers/CMSIS/Include/cmsis_gcc.h ****   Stack Pointer Limit register hence the write is silently ignored in non-secure
 720:Drivers/CMSIS/Include/cmsis_gcc.h ****   mode.
 721:Drivers/CMSIS/Include/cmsis_gcc.h **** 
 722:Drivers/CMSIS/Include/cmsis_gcc.h ****   \details Assigns the given value to the Main Stack Pointer Limit (MSPLIM).
 723:Drivers/CMSIS/Include/cmsis_gcc.h ****   \param [in]    MainStackPtrLimit  Main Stack Pointer Limit value to set
 724:Drivers/CMSIS/Include/cmsis_gcc.h ****  */
 725:Drivers/CMSIS/Include/cmsis_gcc.h **** __STATIC_FORCEINLINE void __set_MSPLIM(uint32_t MainStackPtrLimit)
 726:Drivers/CMSIS/Include/cmsis_gcc.h **** {
 727:Drivers/CMSIS/Include/cmsis_gcc.h **** #if (!(defined (__ARM_ARCH_8M_MAIN__ ) && (__ARM_ARCH_8M_MAIN__ == 1)) && \
 728:Drivers/CMSIS/Include/cmsis_gcc.h ****     (!defined (__ARM_FEATURE_CMSE) || (__ARM_FEATURE_CMSE < 3)))
 729:Drivers/CMSIS/Include/cmsis_gcc.h ****   // without main extensions, the non-secure MSPLIM is RAZ/WI
 730:Drivers/CMSIS/Include/cmsis_gcc.h ****   (void)MainStackPtrLimit;
 731:Drivers/CMSIS/Include/cmsis_gcc.h **** #else
 732:Drivers/CMSIS/Include/cmsis_gcc.h ****   __ASM volatile ("MSR msplim, %0" : : "r" (MainStackPtrLimit));
 733:Drivers/CMSIS/Include/cmsis_gcc.h **** #endif
 734:Drivers/CMSIS/Include/cmsis_gcc.h **** }
 735:Drivers/CMSIS/Include/cmsis_gcc.h **** 
 736:Drivers/CMSIS/Include/cmsis_gcc.h **** 
 737:Drivers/CMSIS/Include/cmsis_gcc.h **** #if (defined (__ARM_FEATURE_CMSE  ) && (__ARM_FEATURE_CMSE   == 3))
 738:Drivers/CMSIS/Include/cmsis_gcc.h **** /**
 739:Drivers/CMSIS/Include/cmsis_gcc.h ****   \brief   Set Main Stack Pointer Limit (non-secure)
 740:Drivers/CMSIS/Include/cmsis_gcc.h ****   Devices without ARMv8-M Main Extensions (i.e. Cortex-M23) lack the non-secure
 741:Drivers/CMSIS/Include/cmsis_gcc.h ****   Stack Pointer Limit register hence the write is silently ignored.
 742:Drivers/CMSIS/Include/cmsis_gcc.h **** 
 743:Drivers/CMSIS/Include/cmsis_gcc.h ****   \details Assigns the given value to the non-secure Main Stack Pointer Limit (MSPLIM) when in secu
 744:Drivers/CMSIS/Include/cmsis_gcc.h ****   \param [in]    MainStackPtrLimit  Main Stack Pointer value to set
 745:Drivers/CMSIS/Include/cmsis_gcc.h ****  */
 746:Drivers/CMSIS/Include/cmsis_gcc.h **** __STATIC_FORCEINLINE void __TZ_set_MSPLIM_NS(uint32_t MainStackPtrLimit)
 747:Drivers/CMSIS/Include/cmsis_gcc.h **** {
 748:Drivers/CMSIS/Include/cmsis_gcc.h **** #if (!(defined (__ARM_ARCH_8M_MAIN__ ) && (__ARM_ARCH_8M_MAIN__ == 1)))
 749:Drivers/CMSIS/Include/cmsis_gcc.h ****   // without main extensions, the non-secure MSPLIM is RAZ/WI
 750:Drivers/CMSIS/Include/cmsis_gcc.h ****   (void)MainStackPtrLimit;
 751:Drivers/CMSIS/Include/cmsis_gcc.h **** #else
 752:Drivers/CMSIS/Include/cmsis_gcc.h ****   __ASM volatile ("MSR msplim_ns, %0" : : "r" (MainStackPtrLimit));
 753:Drivers/CMSIS/Include/cmsis_gcc.h **** #endif
 754:Drivers/CMSIS/Include/cmsis_gcc.h **** }
 755:Drivers/CMSIS/Include/cmsis_gcc.h **** #endif
 756:Drivers/CMSIS/Include/cmsis_gcc.h **** 
 757:Drivers/CMSIS/Include/cmsis_gcc.h **** #endif /* ((defined (__ARM_ARCH_8M_MAIN__ ) && (__ARM_ARCH_8M_MAIN__ == 1)) || \
ARM GAS  C:\Users\ACER\AppData\Local\Temp\cclMZ9Th.s 			page 21


 758:Drivers/CMSIS/Include/cmsis_gcc.h ****            (defined (__ARM_ARCH_8M_BASE__ ) && (__ARM_ARCH_8M_BASE__ == 1))    ) */
 759:Drivers/CMSIS/Include/cmsis_gcc.h **** 
 760:Drivers/CMSIS/Include/cmsis_gcc.h **** 
 761:Drivers/CMSIS/Include/cmsis_gcc.h **** /**
 762:Drivers/CMSIS/Include/cmsis_gcc.h ****   \brief   Get FPSCR
 763:Drivers/CMSIS/Include/cmsis_gcc.h ****   \details Returns the current value of the Floating Point Status/Control register.
 764:Drivers/CMSIS/Include/cmsis_gcc.h ****   \return               Floating Point Status/Control register value
 765:Drivers/CMSIS/Include/cmsis_gcc.h ****  */
 766:Drivers/CMSIS/Include/cmsis_gcc.h **** __STATIC_FORCEINLINE uint32_t __get_FPSCR(void)
 767:Drivers/CMSIS/Include/cmsis_gcc.h **** {
 768:Drivers/CMSIS/Include/cmsis_gcc.h **** #if ((defined (__FPU_PRESENT) && (__FPU_PRESENT == 1U)) && \
 769:Drivers/CMSIS/Include/cmsis_gcc.h ****      (defined (__FPU_USED   ) && (__FPU_USED    == 1U))     )
 770:Drivers/CMSIS/Include/cmsis_gcc.h **** #if __has_builtin(__builtin_arm_get_fpscr) 
 771:Drivers/CMSIS/Include/cmsis_gcc.h **** // Re-enable using built-in when GCC has been fixed
 772:Drivers/CMSIS/Include/cmsis_gcc.h **** // || (__GNUC__ > 7) || (__GNUC__ == 7 && __GNUC_MINOR__ >= 2)
 773:Drivers/CMSIS/Include/cmsis_gcc.h ****   /* see https://gcc.gnu.org/ml/gcc-patches/2017-04/msg00443.html */
 774:Drivers/CMSIS/Include/cmsis_gcc.h ****   return __builtin_arm_get_fpscr();
 775:Drivers/CMSIS/Include/cmsis_gcc.h **** #else
 776:Drivers/CMSIS/Include/cmsis_gcc.h ****   uint32_t result;
 777:Drivers/CMSIS/Include/cmsis_gcc.h **** 
 778:Drivers/CMSIS/Include/cmsis_gcc.h ****   __ASM volatile ("VMRS %0, fpscr" : "=r" (result) );
 779:Drivers/CMSIS/Include/cmsis_gcc.h ****   return(result);
 780:Drivers/CMSIS/Include/cmsis_gcc.h **** #endif
 781:Drivers/CMSIS/Include/cmsis_gcc.h **** #else
 782:Drivers/CMSIS/Include/cmsis_gcc.h ****   return(0U);
 783:Drivers/CMSIS/Include/cmsis_gcc.h **** #endif
 784:Drivers/CMSIS/Include/cmsis_gcc.h **** }
 785:Drivers/CMSIS/Include/cmsis_gcc.h **** 
 786:Drivers/CMSIS/Include/cmsis_gcc.h **** 
 787:Drivers/CMSIS/Include/cmsis_gcc.h **** /**
 788:Drivers/CMSIS/Include/cmsis_gcc.h ****   \brief   Set FPSCR
 789:Drivers/CMSIS/Include/cmsis_gcc.h ****   \details Assigns the given value to the Floating Point Status/Control register.
 790:Drivers/CMSIS/Include/cmsis_gcc.h ****   \param [in]    fpscr  Floating Point Status/Control value to set
 791:Drivers/CMSIS/Include/cmsis_gcc.h ****  */
 792:Drivers/CMSIS/Include/cmsis_gcc.h **** __STATIC_FORCEINLINE void __set_FPSCR(uint32_t fpscr)
 793:Drivers/CMSIS/Include/cmsis_gcc.h **** {
 794:Drivers/CMSIS/Include/cmsis_gcc.h **** #if ((defined (__FPU_PRESENT) && (__FPU_PRESENT == 1U)) && \
 795:Drivers/CMSIS/Include/cmsis_gcc.h ****      (defined (__FPU_USED   ) && (__FPU_USED    == 1U))     )
 796:Drivers/CMSIS/Include/cmsis_gcc.h **** #if __has_builtin(__builtin_arm_set_fpscr)
 797:Drivers/CMSIS/Include/cmsis_gcc.h **** // Re-enable using built-in when GCC has been fixed
 798:Drivers/CMSIS/Include/cmsis_gcc.h **** // || (__GNUC__ > 7) || (__GNUC__ == 7 && __GNUC_MINOR__ >= 2)
 799:Drivers/CMSIS/Include/cmsis_gcc.h ****   /* see https://gcc.gnu.org/ml/gcc-patches/2017-04/msg00443.html */
 800:Drivers/CMSIS/Include/cmsis_gcc.h ****   __builtin_arm_set_fpscr(fpscr);
 801:Drivers/CMSIS/Include/cmsis_gcc.h **** #else
 802:Drivers/CMSIS/Include/cmsis_gcc.h ****   __ASM volatile ("VMSR fpscr, %0" : : "r" (fpscr) : "vfpcc", "memory");
 803:Drivers/CMSIS/Include/cmsis_gcc.h **** #endif
 804:Drivers/CMSIS/Include/cmsis_gcc.h **** #else
 805:Drivers/CMSIS/Include/cmsis_gcc.h ****   (void)fpscr;
 806:Drivers/CMSIS/Include/cmsis_gcc.h **** #endif
 807:Drivers/CMSIS/Include/cmsis_gcc.h **** }
 808:Drivers/CMSIS/Include/cmsis_gcc.h **** 
 809:Drivers/CMSIS/Include/cmsis_gcc.h **** 
 810:Drivers/CMSIS/Include/cmsis_gcc.h **** /*@} end of CMSIS_Core_RegAccFunctions */
 811:Drivers/CMSIS/Include/cmsis_gcc.h **** 
 812:Drivers/CMSIS/Include/cmsis_gcc.h **** 
 813:Drivers/CMSIS/Include/cmsis_gcc.h **** /* ##########################  Core Instruction Access  ######################### */
 814:Drivers/CMSIS/Include/cmsis_gcc.h **** /** \defgroup CMSIS_Core_InstructionInterface CMSIS Core Instruction Interface
ARM GAS  C:\Users\ACER\AppData\Local\Temp\cclMZ9Th.s 			page 22


 815:Drivers/CMSIS/Include/cmsis_gcc.h ****   Access to dedicated instructions
 816:Drivers/CMSIS/Include/cmsis_gcc.h ****   @{
 817:Drivers/CMSIS/Include/cmsis_gcc.h **** */
 818:Drivers/CMSIS/Include/cmsis_gcc.h **** 
 819:Drivers/CMSIS/Include/cmsis_gcc.h **** /* Define macros for porting to both thumb1 and thumb2.
 820:Drivers/CMSIS/Include/cmsis_gcc.h ****  * For thumb1, use low register (r0-r7), specified by constraint "l"
 821:Drivers/CMSIS/Include/cmsis_gcc.h ****  * Otherwise, use general registers, specified by constraint "r" */
 822:Drivers/CMSIS/Include/cmsis_gcc.h **** #if defined (__thumb__) && !defined (__thumb2__)
 823:Drivers/CMSIS/Include/cmsis_gcc.h **** #define __CMSIS_GCC_OUT_REG(r) "=l" (r)
 824:Drivers/CMSIS/Include/cmsis_gcc.h **** #define __CMSIS_GCC_RW_REG(r) "+l" (r)
 825:Drivers/CMSIS/Include/cmsis_gcc.h **** #define __CMSIS_GCC_USE_REG(r) "l" (r)
 826:Drivers/CMSIS/Include/cmsis_gcc.h **** #else
 827:Drivers/CMSIS/Include/cmsis_gcc.h **** #define __CMSIS_GCC_OUT_REG(r) "=r" (r)
 828:Drivers/CMSIS/Include/cmsis_gcc.h **** #define __CMSIS_GCC_RW_REG(r) "+r" (r)
 829:Drivers/CMSIS/Include/cmsis_gcc.h **** #define __CMSIS_GCC_USE_REG(r) "r" (r)
 830:Drivers/CMSIS/Include/cmsis_gcc.h **** #endif
 831:Drivers/CMSIS/Include/cmsis_gcc.h **** 
 832:Drivers/CMSIS/Include/cmsis_gcc.h **** /**
 833:Drivers/CMSIS/Include/cmsis_gcc.h ****   \brief   No Operation
 834:Drivers/CMSIS/Include/cmsis_gcc.h ****   \details No Operation does nothing. This instruction can be used for code alignment purposes.
 835:Drivers/CMSIS/Include/cmsis_gcc.h ****  */
 836:Drivers/CMSIS/Include/cmsis_gcc.h **** #define __NOP()                             __ASM volatile ("nop")
 837:Drivers/CMSIS/Include/cmsis_gcc.h **** 
 838:Drivers/CMSIS/Include/cmsis_gcc.h **** /**
 839:Drivers/CMSIS/Include/cmsis_gcc.h ****   \brief   Wait For Interrupt
 840:Drivers/CMSIS/Include/cmsis_gcc.h ****   \details Wait For Interrupt is a hint instruction that suspends execution until one of a number o
 841:Drivers/CMSIS/Include/cmsis_gcc.h ****  */
 842:Drivers/CMSIS/Include/cmsis_gcc.h **** #define __WFI()                             __ASM volatile ("wfi")
 843:Drivers/CMSIS/Include/cmsis_gcc.h **** 
 844:Drivers/CMSIS/Include/cmsis_gcc.h **** 
 845:Drivers/CMSIS/Include/cmsis_gcc.h **** /**
 846:Drivers/CMSIS/Include/cmsis_gcc.h ****   \brief   Wait For Event
 847:Drivers/CMSIS/Include/cmsis_gcc.h ****   \details Wait For Event is a hint instruction that permits the processor to enter
 848:Drivers/CMSIS/Include/cmsis_gcc.h ****            a low-power state until one of a number of events occurs.
 849:Drivers/CMSIS/Include/cmsis_gcc.h ****  */
 850:Drivers/CMSIS/Include/cmsis_gcc.h **** #define __WFE()                             __ASM volatile ("wfe")
 851:Drivers/CMSIS/Include/cmsis_gcc.h **** 
 852:Drivers/CMSIS/Include/cmsis_gcc.h **** 
 853:Drivers/CMSIS/Include/cmsis_gcc.h **** /**
 854:Drivers/CMSIS/Include/cmsis_gcc.h ****   \brief   Send Event
 855:Drivers/CMSIS/Include/cmsis_gcc.h ****   \details Send Event is a hint instruction. It causes an event to be signaled to the CPU.
 856:Drivers/CMSIS/Include/cmsis_gcc.h ****  */
 857:Drivers/CMSIS/Include/cmsis_gcc.h **** #define __SEV()                             __ASM volatile ("sev")
 858:Drivers/CMSIS/Include/cmsis_gcc.h **** 
 859:Drivers/CMSIS/Include/cmsis_gcc.h **** 
 860:Drivers/CMSIS/Include/cmsis_gcc.h **** /**
 861:Drivers/CMSIS/Include/cmsis_gcc.h ****   \brief   Instruction Synchronization Barrier
 862:Drivers/CMSIS/Include/cmsis_gcc.h ****   \details Instruction Synchronization Barrier flushes the pipeline in the processor,
 863:Drivers/CMSIS/Include/cmsis_gcc.h ****            so that all instructions following the ISB are fetched from cache or memory,
 864:Drivers/CMSIS/Include/cmsis_gcc.h ****            after the instruction has been completed.
 865:Drivers/CMSIS/Include/cmsis_gcc.h ****  */
 866:Drivers/CMSIS/Include/cmsis_gcc.h **** __STATIC_FORCEINLINE void __ISB(void)
 867:Drivers/CMSIS/Include/cmsis_gcc.h **** {
 868:Drivers/CMSIS/Include/cmsis_gcc.h ****   __ASM volatile ("isb 0xF":::"memory");
 869:Drivers/CMSIS/Include/cmsis_gcc.h **** }
 870:Drivers/CMSIS/Include/cmsis_gcc.h **** 
 871:Drivers/CMSIS/Include/cmsis_gcc.h **** 
ARM GAS  C:\Users\ACER\AppData\Local\Temp\cclMZ9Th.s 			page 23


 872:Drivers/CMSIS/Include/cmsis_gcc.h **** /**
 873:Drivers/CMSIS/Include/cmsis_gcc.h ****   \brief   Data Synchronization Barrier
 874:Drivers/CMSIS/Include/cmsis_gcc.h ****   \details Acts as a special kind of Data Memory Barrier.
 875:Drivers/CMSIS/Include/cmsis_gcc.h ****            It completes when all explicit memory accesses before this instruction complete.
 876:Drivers/CMSIS/Include/cmsis_gcc.h ****  */
 877:Drivers/CMSIS/Include/cmsis_gcc.h **** __STATIC_FORCEINLINE void __DSB(void)
 878:Drivers/CMSIS/Include/cmsis_gcc.h **** {
 879:Drivers/CMSIS/Include/cmsis_gcc.h ****   __ASM volatile ("dsb 0xF":::"memory");
 880:Drivers/CMSIS/Include/cmsis_gcc.h **** }
 881:Drivers/CMSIS/Include/cmsis_gcc.h **** 
 882:Drivers/CMSIS/Include/cmsis_gcc.h **** 
 883:Drivers/CMSIS/Include/cmsis_gcc.h **** /**
 884:Drivers/CMSIS/Include/cmsis_gcc.h ****   \brief   Data Memory Barrier
 885:Drivers/CMSIS/Include/cmsis_gcc.h ****   \details Ensures the apparent order of the explicit memory operations before
 886:Drivers/CMSIS/Include/cmsis_gcc.h ****            and after the instruction, without ensuring their completion.
 887:Drivers/CMSIS/Include/cmsis_gcc.h ****  */
 888:Drivers/CMSIS/Include/cmsis_gcc.h **** __STATIC_FORCEINLINE void __DMB(void)
 889:Drivers/CMSIS/Include/cmsis_gcc.h **** {
 890:Drivers/CMSIS/Include/cmsis_gcc.h ****   __ASM volatile ("dmb 0xF":::"memory");
 891:Drivers/CMSIS/Include/cmsis_gcc.h **** }
 892:Drivers/CMSIS/Include/cmsis_gcc.h **** 
 893:Drivers/CMSIS/Include/cmsis_gcc.h **** 
 894:Drivers/CMSIS/Include/cmsis_gcc.h **** /**
 895:Drivers/CMSIS/Include/cmsis_gcc.h ****   \brief   Reverse byte order (32 bit)
 896:Drivers/CMSIS/Include/cmsis_gcc.h ****   \details Reverses the byte order in unsigned integer value. For example, 0x12345678 becomes 0x785
 897:Drivers/CMSIS/Include/cmsis_gcc.h ****   \param [in]    value  Value to reverse
 898:Drivers/CMSIS/Include/cmsis_gcc.h ****   \return               Reversed value
 899:Drivers/CMSIS/Include/cmsis_gcc.h ****  */
 900:Drivers/CMSIS/Include/cmsis_gcc.h **** __STATIC_FORCEINLINE uint32_t __REV(uint32_t value)
 901:Drivers/CMSIS/Include/cmsis_gcc.h **** {
 902:Drivers/CMSIS/Include/cmsis_gcc.h **** #if (__GNUC__ > 4) || (__GNUC__ == 4 && __GNUC_MINOR__ >= 5)
 903:Drivers/CMSIS/Include/cmsis_gcc.h ****   return __builtin_bswap32(value);
 904:Drivers/CMSIS/Include/cmsis_gcc.h **** #else
 905:Drivers/CMSIS/Include/cmsis_gcc.h ****   uint32_t result;
 906:Drivers/CMSIS/Include/cmsis_gcc.h **** 
 907:Drivers/CMSIS/Include/cmsis_gcc.h ****   __ASM volatile ("rev %0, %1" : __CMSIS_GCC_OUT_REG (result) : __CMSIS_GCC_USE_REG (value) );
 908:Drivers/CMSIS/Include/cmsis_gcc.h ****   return result;
 909:Drivers/CMSIS/Include/cmsis_gcc.h **** #endif
 910:Drivers/CMSIS/Include/cmsis_gcc.h **** }
 911:Drivers/CMSIS/Include/cmsis_gcc.h **** 
 912:Drivers/CMSIS/Include/cmsis_gcc.h **** 
 913:Drivers/CMSIS/Include/cmsis_gcc.h **** /**
 914:Drivers/CMSIS/Include/cmsis_gcc.h ****   \brief   Reverse byte order (16 bit)
 915:Drivers/CMSIS/Include/cmsis_gcc.h ****   \details Reverses the byte order within each halfword of a word. For example, 0x12345678 becomes 
 916:Drivers/CMSIS/Include/cmsis_gcc.h ****   \param [in]    value  Value to reverse
 917:Drivers/CMSIS/Include/cmsis_gcc.h ****   \return               Reversed value
 918:Drivers/CMSIS/Include/cmsis_gcc.h ****  */
 919:Drivers/CMSIS/Include/cmsis_gcc.h **** __STATIC_FORCEINLINE uint32_t __REV16(uint32_t value)
 920:Drivers/CMSIS/Include/cmsis_gcc.h **** {
 921:Drivers/CMSIS/Include/cmsis_gcc.h ****   uint32_t result;
 922:Drivers/CMSIS/Include/cmsis_gcc.h **** 
 923:Drivers/CMSIS/Include/cmsis_gcc.h ****   __ASM volatile ("rev16 %0, %1" : __CMSIS_GCC_OUT_REG (result) : __CMSIS_GCC_USE_REG (value) );
 924:Drivers/CMSIS/Include/cmsis_gcc.h ****   return result;
 925:Drivers/CMSIS/Include/cmsis_gcc.h **** }
 926:Drivers/CMSIS/Include/cmsis_gcc.h **** 
 927:Drivers/CMSIS/Include/cmsis_gcc.h **** 
 928:Drivers/CMSIS/Include/cmsis_gcc.h **** /**
ARM GAS  C:\Users\ACER\AppData\Local\Temp\cclMZ9Th.s 			page 24


 929:Drivers/CMSIS/Include/cmsis_gcc.h ****   \brief   Reverse byte order (16 bit)
 930:Drivers/CMSIS/Include/cmsis_gcc.h ****   \details Reverses the byte order in a 16-bit value and returns the signed 16-bit result. For exam
 931:Drivers/CMSIS/Include/cmsis_gcc.h ****   \param [in]    value  Value to reverse
 932:Drivers/CMSIS/Include/cmsis_gcc.h ****   \return               Reversed value
 933:Drivers/CMSIS/Include/cmsis_gcc.h ****  */
 934:Drivers/CMSIS/Include/cmsis_gcc.h **** __STATIC_FORCEINLINE int16_t __REVSH(int16_t value)
 935:Drivers/CMSIS/Include/cmsis_gcc.h **** {
 936:Drivers/CMSIS/Include/cmsis_gcc.h **** #if (__GNUC__ > 4) || (__GNUC__ == 4 && __GNUC_MINOR__ >= 8)
 937:Drivers/CMSIS/Include/cmsis_gcc.h ****   return (int16_t)__builtin_bswap16(value);
 938:Drivers/CMSIS/Include/cmsis_gcc.h **** #else
 939:Drivers/CMSIS/Include/cmsis_gcc.h ****   int16_t result;
 940:Drivers/CMSIS/Include/cmsis_gcc.h **** 
 941:Drivers/CMSIS/Include/cmsis_gcc.h ****   __ASM volatile ("revsh %0, %1" : __CMSIS_GCC_OUT_REG (result) : __CMSIS_GCC_USE_REG (value) );
 942:Drivers/CMSIS/Include/cmsis_gcc.h ****   return result;
 943:Drivers/CMSIS/Include/cmsis_gcc.h **** #endif
 944:Drivers/CMSIS/Include/cmsis_gcc.h **** }
 945:Drivers/CMSIS/Include/cmsis_gcc.h **** 
 946:Drivers/CMSIS/Include/cmsis_gcc.h **** 
 947:Drivers/CMSIS/Include/cmsis_gcc.h **** /**
 948:Drivers/CMSIS/Include/cmsis_gcc.h ****   \brief   Rotate Right in unsigned value (32 bit)
 949:Drivers/CMSIS/Include/cmsis_gcc.h ****   \details Rotate Right (immediate) provides the value of the contents of a register rotated by a v
 950:Drivers/CMSIS/Include/cmsis_gcc.h ****   \param [in]    op1  Value to rotate
 951:Drivers/CMSIS/Include/cmsis_gcc.h ****   \param [in]    op2  Number of Bits to rotate
 952:Drivers/CMSIS/Include/cmsis_gcc.h ****   \return               Rotated value
 953:Drivers/CMSIS/Include/cmsis_gcc.h ****  */
 954:Drivers/CMSIS/Include/cmsis_gcc.h **** __STATIC_FORCEINLINE uint32_t __ROR(uint32_t op1, uint32_t op2)
 955:Drivers/CMSIS/Include/cmsis_gcc.h **** {
 956:Drivers/CMSIS/Include/cmsis_gcc.h ****   op2 %= 32U;
 957:Drivers/CMSIS/Include/cmsis_gcc.h ****   if (op2 == 0U)
 958:Drivers/CMSIS/Include/cmsis_gcc.h ****   {
 959:Drivers/CMSIS/Include/cmsis_gcc.h ****     return op1;
 960:Drivers/CMSIS/Include/cmsis_gcc.h ****   }
 961:Drivers/CMSIS/Include/cmsis_gcc.h ****   return (op1 >> op2) | (op1 << (32U - op2));
 962:Drivers/CMSIS/Include/cmsis_gcc.h **** }
 963:Drivers/CMSIS/Include/cmsis_gcc.h **** 
 964:Drivers/CMSIS/Include/cmsis_gcc.h **** 
 965:Drivers/CMSIS/Include/cmsis_gcc.h **** /**
 966:Drivers/CMSIS/Include/cmsis_gcc.h ****   \brief   Breakpoint
 967:Drivers/CMSIS/Include/cmsis_gcc.h ****   \details Causes the processor to enter Debug state.
 968:Drivers/CMSIS/Include/cmsis_gcc.h ****            Debug tools can use this to investigate system state when the instruction at a particula
 969:Drivers/CMSIS/Include/cmsis_gcc.h ****   \param [in]    value  is ignored by the processor.
 970:Drivers/CMSIS/Include/cmsis_gcc.h ****                  If required, a debugger can use it to store additional information about the break
 971:Drivers/CMSIS/Include/cmsis_gcc.h ****  */
 972:Drivers/CMSIS/Include/cmsis_gcc.h **** #define __BKPT(value)                       __ASM volatile ("bkpt "#value)
 973:Drivers/CMSIS/Include/cmsis_gcc.h **** 
 974:Drivers/CMSIS/Include/cmsis_gcc.h **** 
 975:Drivers/CMSIS/Include/cmsis_gcc.h **** /**
 976:Drivers/CMSIS/Include/cmsis_gcc.h ****   \brief   Reverse bit order of value
 977:Drivers/CMSIS/Include/cmsis_gcc.h ****   \details Reverses the bit order of the given value.
 978:Drivers/CMSIS/Include/cmsis_gcc.h ****   \param [in]    value  Value to reverse
 979:Drivers/CMSIS/Include/cmsis_gcc.h ****   \return               Reversed value
 980:Drivers/CMSIS/Include/cmsis_gcc.h ****  */
 981:Drivers/CMSIS/Include/cmsis_gcc.h **** __STATIC_FORCEINLINE uint32_t __RBIT(uint32_t value)
 982:Drivers/CMSIS/Include/cmsis_gcc.h **** {
 983:Drivers/CMSIS/Include/cmsis_gcc.h ****   uint32_t result;
 984:Drivers/CMSIS/Include/cmsis_gcc.h **** 
 985:Drivers/CMSIS/Include/cmsis_gcc.h **** #if ((defined (__ARM_ARCH_7M__      ) && (__ARM_ARCH_7M__      == 1)) || \
ARM GAS  C:\Users\ACER\AppData\Local\Temp\cclMZ9Th.s 			page 25


 986:Drivers/CMSIS/Include/cmsis_gcc.h ****      (defined (__ARM_ARCH_7EM__     ) && (__ARM_ARCH_7EM__     == 1)) || \
 987:Drivers/CMSIS/Include/cmsis_gcc.h ****      (defined (__ARM_ARCH_8M_MAIN__ ) && (__ARM_ARCH_8M_MAIN__ == 1))    )
 988:Drivers/CMSIS/Include/cmsis_gcc.h ****    __ASM volatile ("rbit %0, %1" : "=r" (result) : "r" (value) );
 989:Drivers/CMSIS/Include/cmsis_gcc.h **** #else
 990:Drivers/CMSIS/Include/cmsis_gcc.h ****   uint32_t s = (4U /*sizeof(v)*/ * 8U) - 1U; /* extra shift needed at end */
 991:Drivers/CMSIS/Include/cmsis_gcc.h **** 
 992:Drivers/CMSIS/Include/cmsis_gcc.h ****   result = value;                      /* r will be reversed bits of v; first get LSB of v */
 993:Drivers/CMSIS/Include/cmsis_gcc.h ****   for (value >>= 1U; value != 0U; value >>= 1U)
 994:Drivers/CMSIS/Include/cmsis_gcc.h ****   {
 995:Drivers/CMSIS/Include/cmsis_gcc.h ****     result <<= 1U;
 996:Drivers/CMSIS/Include/cmsis_gcc.h ****     result |= value & 1U;
 997:Drivers/CMSIS/Include/cmsis_gcc.h ****     s--;
 998:Drivers/CMSIS/Include/cmsis_gcc.h ****   }
 999:Drivers/CMSIS/Include/cmsis_gcc.h ****   result <<= s;                        /* shift when v's highest bits are zero */
1000:Drivers/CMSIS/Include/cmsis_gcc.h **** #endif
1001:Drivers/CMSIS/Include/cmsis_gcc.h ****   return result;
1002:Drivers/CMSIS/Include/cmsis_gcc.h **** }
1003:Drivers/CMSIS/Include/cmsis_gcc.h **** 
1004:Drivers/CMSIS/Include/cmsis_gcc.h **** 
1005:Drivers/CMSIS/Include/cmsis_gcc.h **** /**
1006:Drivers/CMSIS/Include/cmsis_gcc.h ****   \brief   Count leading zeros
1007:Drivers/CMSIS/Include/cmsis_gcc.h ****   \details Counts the number of leading zeros of a data value.
1008:Drivers/CMSIS/Include/cmsis_gcc.h ****   \param [in]  value  Value to count the leading zeros
1009:Drivers/CMSIS/Include/cmsis_gcc.h ****   \return             number of leading zeros in value
1010:Drivers/CMSIS/Include/cmsis_gcc.h ****  */
1011:Drivers/CMSIS/Include/cmsis_gcc.h **** #define __CLZ             (uint8_t)__builtin_clz
1012:Drivers/CMSIS/Include/cmsis_gcc.h **** 
1013:Drivers/CMSIS/Include/cmsis_gcc.h **** 
1014:Drivers/CMSIS/Include/cmsis_gcc.h **** #if ((defined (__ARM_ARCH_7M__      ) && (__ARM_ARCH_7M__      == 1)) || \
1015:Drivers/CMSIS/Include/cmsis_gcc.h ****      (defined (__ARM_ARCH_7EM__     ) && (__ARM_ARCH_7EM__     == 1)) || \
1016:Drivers/CMSIS/Include/cmsis_gcc.h ****      (defined (__ARM_ARCH_8M_MAIN__ ) && (__ARM_ARCH_8M_MAIN__ == 1)) || \
1017:Drivers/CMSIS/Include/cmsis_gcc.h ****      (defined (__ARM_ARCH_8M_BASE__ ) && (__ARM_ARCH_8M_BASE__ == 1))    )
1018:Drivers/CMSIS/Include/cmsis_gcc.h **** /**
1019:Drivers/CMSIS/Include/cmsis_gcc.h ****   \brief   LDR Exclusive (8 bit)
1020:Drivers/CMSIS/Include/cmsis_gcc.h ****   \details Executes a exclusive LDR instruction for 8 bit value.
1021:Drivers/CMSIS/Include/cmsis_gcc.h ****   \param [in]    ptr  Pointer to data
1022:Drivers/CMSIS/Include/cmsis_gcc.h ****   \return             value of type uint8_t at (*ptr)
1023:Drivers/CMSIS/Include/cmsis_gcc.h ****  */
1024:Drivers/CMSIS/Include/cmsis_gcc.h **** __STATIC_FORCEINLINE uint8_t __LDREXB(volatile uint8_t *addr)
1025:Drivers/CMSIS/Include/cmsis_gcc.h **** {
1026:Drivers/CMSIS/Include/cmsis_gcc.h ****     uint32_t result;
1027:Drivers/CMSIS/Include/cmsis_gcc.h **** 
1028:Drivers/CMSIS/Include/cmsis_gcc.h **** #if (__GNUC__ > 4) || (__GNUC__ == 4 && __GNUC_MINOR__ >= 8)
1029:Drivers/CMSIS/Include/cmsis_gcc.h ****    __ASM volatile ("ldrexb %0, %1" : "=r" (result) : "Q" (*addr) );
1030:Drivers/CMSIS/Include/cmsis_gcc.h **** #else
1031:Drivers/CMSIS/Include/cmsis_gcc.h ****     /* Prior to GCC 4.8, "Q" will be expanded to [rx, #0] which is not
1032:Drivers/CMSIS/Include/cmsis_gcc.h ****        accepted by assembler. So has to use following less efficient pattern.
1033:Drivers/CMSIS/Include/cmsis_gcc.h ****     */
1034:Drivers/CMSIS/Include/cmsis_gcc.h ****    __ASM volatile ("ldrexb %0, [%1]" : "=r" (result) : "r" (addr) : "memory" );
1035:Drivers/CMSIS/Include/cmsis_gcc.h **** #endif
1036:Drivers/CMSIS/Include/cmsis_gcc.h ****    return ((uint8_t) result);    /* Add explicit type cast here */
1037:Drivers/CMSIS/Include/cmsis_gcc.h **** }
1038:Drivers/CMSIS/Include/cmsis_gcc.h **** 
1039:Drivers/CMSIS/Include/cmsis_gcc.h **** 
1040:Drivers/CMSIS/Include/cmsis_gcc.h **** /**
1041:Drivers/CMSIS/Include/cmsis_gcc.h ****   \brief   LDR Exclusive (16 bit)
1042:Drivers/CMSIS/Include/cmsis_gcc.h ****   \details Executes a exclusive LDR instruction for 16 bit values.
ARM GAS  C:\Users\ACER\AppData\Local\Temp\cclMZ9Th.s 			page 26


1043:Drivers/CMSIS/Include/cmsis_gcc.h ****   \param [in]    ptr  Pointer to data
1044:Drivers/CMSIS/Include/cmsis_gcc.h ****   \return        value of type uint16_t at (*ptr)
1045:Drivers/CMSIS/Include/cmsis_gcc.h ****  */
1046:Drivers/CMSIS/Include/cmsis_gcc.h **** __STATIC_FORCEINLINE uint16_t __LDREXH(volatile uint16_t *addr)
1047:Drivers/CMSIS/Include/cmsis_gcc.h **** {
1048:Drivers/CMSIS/Include/cmsis_gcc.h ****     uint32_t result;
1049:Drivers/CMSIS/Include/cmsis_gcc.h **** 
1050:Drivers/CMSIS/Include/cmsis_gcc.h **** #if (__GNUC__ > 4) || (__GNUC__ == 4 && __GNUC_MINOR__ >= 8)
1051:Drivers/CMSIS/Include/cmsis_gcc.h ****    __ASM volatile ("ldrexh %0, %1" : "=r" (result) : "Q" (*addr) );
1052:Drivers/CMSIS/Include/cmsis_gcc.h **** #else
1053:Drivers/CMSIS/Include/cmsis_gcc.h ****     /* Prior to GCC 4.8, "Q" will be expanded to [rx, #0] which is not
1054:Drivers/CMSIS/Include/cmsis_gcc.h ****        accepted by assembler. So has to use following less efficient pattern.
1055:Drivers/CMSIS/Include/cmsis_gcc.h ****     */
1056:Drivers/CMSIS/Include/cmsis_gcc.h ****    __ASM volatile ("ldrexh %0, [%1]" : "=r" (result) : "r" (addr) : "memory" );
1057:Drivers/CMSIS/Include/cmsis_gcc.h **** #endif
1058:Drivers/CMSIS/Include/cmsis_gcc.h ****    return ((uint16_t) result);    /* Add explicit type cast here */
1059:Drivers/CMSIS/Include/cmsis_gcc.h **** }
1060:Drivers/CMSIS/Include/cmsis_gcc.h **** 
1061:Drivers/CMSIS/Include/cmsis_gcc.h **** 
1062:Drivers/CMSIS/Include/cmsis_gcc.h **** /**
1063:Drivers/CMSIS/Include/cmsis_gcc.h ****   \brief   LDR Exclusive (32 bit)
1064:Drivers/CMSIS/Include/cmsis_gcc.h ****   \details Executes a exclusive LDR instruction for 32 bit values.
1065:Drivers/CMSIS/Include/cmsis_gcc.h ****   \param [in]    ptr  Pointer to data
1066:Drivers/CMSIS/Include/cmsis_gcc.h ****   \return        value of type uint32_t at (*ptr)
1067:Drivers/CMSIS/Include/cmsis_gcc.h ****  */
1068:Drivers/CMSIS/Include/cmsis_gcc.h **** __STATIC_FORCEINLINE uint32_t __LDREXW(volatile uint32_t *addr)
1069:Drivers/CMSIS/Include/cmsis_gcc.h **** {
1070:Drivers/CMSIS/Include/cmsis_gcc.h ****     uint32_t result;
1071:Drivers/CMSIS/Include/cmsis_gcc.h **** 
1072:Drivers/CMSIS/Include/cmsis_gcc.h ****    __ASM volatile ("ldrex %0, %1" : "=r" (result) : "Q" (*addr) );
1073:Drivers/CMSIS/Include/cmsis_gcc.h ****    return(result);
1074:Drivers/CMSIS/Include/cmsis_gcc.h **** }
1075:Drivers/CMSIS/Include/cmsis_gcc.h **** 
1076:Drivers/CMSIS/Include/cmsis_gcc.h **** 
1077:Drivers/CMSIS/Include/cmsis_gcc.h **** /**
1078:Drivers/CMSIS/Include/cmsis_gcc.h ****   \brief   STR Exclusive (8 bit)
1079:Drivers/CMSIS/Include/cmsis_gcc.h ****   \details Executes a exclusive STR instruction for 8 bit values.
1080:Drivers/CMSIS/Include/cmsis_gcc.h ****   \param [in]  value  Value to store
1081:Drivers/CMSIS/Include/cmsis_gcc.h ****   \param [in]    ptr  Pointer to location
1082:Drivers/CMSIS/Include/cmsis_gcc.h ****   \return          0  Function succeeded
1083:Drivers/CMSIS/Include/cmsis_gcc.h ****   \return          1  Function failed
1084:Drivers/CMSIS/Include/cmsis_gcc.h ****  */
1085:Drivers/CMSIS/Include/cmsis_gcc.h **** __STATIC_FORCEINLINE uint32_t __STREXB(uint8_t value, volatile uint8_t *addr)
1086:Drivers/CMSIS/Include/cmsis_gcc.h **** {
1087:Drivers/CMSIS/Include/cmsis_gcc.h ****    uint32_t result;
1088:Drivers/CMSIS/Include/cmsis_gcc.h **** 
1089:Drivers/CMSIS/Include/cmsis_gcc.h ****    __ASM volatile ("strexb %0, %2, %1" : "=&r" (result), "=Q" (*addr) : "r" ((uint32_t)value) );
1090:Drivers/CMSIS/Include/cmsis_gcc.h ****    return(result);
1091:Drivers/CMSIS/Include/cmsis_gcc.h **** }
1092:Drivers/CMSIS/Include/cmsis_gcc.h **** 
1093:Drivers/CMSIS/Include/cmsis_gcc.h **** 
1094:Drivers/CMSIS/Include/cmsis_gcc.h **** /**
1095:Drivers/CMSIS/Include/cmsis_gcc.h ****   \brief   STR Exclusive (16 bit)
1096:Drivers/CMSIS/Include/cmsis_gcc.h ****   \details Executes a exclusive STR instruction for 16 bit values.
1097:Drivers/CMSIS/Include/cmsis_gcc.h ****   \param [in]  value  Value to store
1098:Drivers/CMSIS/Include/cmsis_gcc.h ****   \param [in]    ptr  Pointer to location
1099:Drivers/CMSIS/Include/cmsis_gcc.h ****   \return          0  Function succeeded
ARM GAS  C:\Users\ACER\AppData\Local\Temp\cclMZ9Th.s 			page 27


1100:Drivers/CMSIS/Include/cmsis_gcc.h ****   \return          1  Function failed
1101:Drivers/CMSIS/Include/cmsis_gcc.h ****  */
1102:Drivers/CMSIS/Include/cmsis_gcc.h **** __STATIC_FORCEINLINE uint32_t __STREXH(uint16_t value, volatile uint16_t *addr)
1103:Drivers/CMSIS/Include/cmsis_gcc.h **** {
1104:Drivers/CMSIS/Include/cmsis_gcc.h ****    uint32_t result;
1105:Drivers/CMSIS/Include/cmsis_gcc.h **** 
1106:Drivers/CMSIS/Include/cmsis_gcc.h ****    __ASM volatile ("strexh %0, %2, %1" : "=&r" (result), "=Q" (*addr) : "r" ((uint32_t)value) );
1107:Drivers/CMSIS/Include/cmsis_gcc.h ****    return(result);
1108:Drivers/CMSIS/Include/cmsis_gcc.h **** }
1109:Drivers/CMSIS/Include/cmsis_gcc.h **** 
1110:Drivers/CMSIS/Include/cmsis_gcc.h **** 
1111:Drivers/CMSIS/Include/cmsis_gcc.h **** /**
1112:Drivers/CMSIS/Include/cmsis_gcc.h ****   \brief   STR Exclusive (32 bit)
1113:Drivers/CMSIS/Include/cmsis_gcc.h ****   \details Executes a exclusive STR instruction for 32 bit values.
1114:Drivers/CMSIS/Include/cmsis_gcc.h ****   \param [in]  value  Value to store
1115:Drivers/CMSIS/Include/cmsis_gcc.h ****   \param [in]    ptr  Pointer to location
1116:Drivers/CMSIS/Include/cmsis_gcc.h ****   \return          0  Function succeeded
1117:Drivers/CMSIS/Include/cmsis_gcc.h ****   \return          1  Function failed
1118:Drivers/CMSIS/Include/cmsis_gcc.h ****  */
1119:Drivers/CMSIS/Include/cmsis_gcc.h **** __STATIC_FORCEINLINE uint32_t __STREXW(uint32_t value, volatile uint32_t *addr)
1120:Drivers/CMSIS/Include/cmsis_gcc.h **** {
1121:Drivers/CMSIS/Include/cmsis_gcc.h ****    uint32_t result;
1122:Drivers/CMSIS/Include/cmsis_gcc.h **** 
1123:Drivers/CMSIS/Include/cmsis_gcc.h ****    __ASM volatile ("strex %0, %2, %1" : "=&r" (result), "=Q" (*addr) : "r" (value) );
1124:Drivers/CMSIS/Include/cmsis_gcc.h ****    return(result);
1125:Drivers/CMSIS/Include/cmsis_gcc.h **** }
1126:Drivers/CMSIS/Include/cmsis_gcc.h **** 
1127:Drivers/CMSIS/Include/cmsis_gcc.h **** 
1128:Drivers/CMSIS/Include/cmsis_gcc.h **** /**
1129:Drivers/CMSIS/Include/cmsis_gcc.h ****   \brief   Remove the exclusive lock
1130:Drivers/CMSIS/Include/cmsis_gcc.h ****   \details Removes the exclusive lock which is created by LDREX.
1131:Drivers/CMSIS/Include/cmsis_gcc.h ****  */
1132:Drivers/CMSIS/Include/cmsis_gcc.h **** __STATIC_FORCEINLINE void __CLREX(void)
1133:Drivers/CMSIS/Include/cmsis_gcc.h **** {
1134:Drivers/CMSIS/Include/cmsis_gcc.h ****   __ASM volatile ("clrex" ::: "memory");
1135:Drivers/CMSIS/Include/cmsis_gcc.h **** }
1136:Drivers/CMSIS/Include/cmsis_gcc.h **** 
1137:Drivers/CMSIS/Include/cmsis_gcc.h **** #endif /* ((defined (__ARM_ARCH_7M__      ) && (__ARM_ARCH_7M__      == 1)) || \
1138:Drivers/CMSIS/Include/cmsis_gcc.h ****            (defined (__ARM_ARCH_7EM__     ) && (__ARM_ARCH_7EM__     == 1)) || \
1139:Drivers/CMSIS/Include/cmsis_gcc.h ****            (defined (__ARM_ARCH_8M_MAIN__ ) && (__ARM_ARCH_8M_MAIN__ == 1)) || \
1140:Drivers/CMSIS/Include/cmsis_gcc.h ****            (defined (__ARM_ARCH_8M_BASE__ ) && (__ARM_ARCH_8M_BASE__ == 1))    ) */
1141:Drivers/CMSIS/Include/cmsis_gcc.h **** 
1142:Drivers/CMSIS/Include/cmsis_gcc.h **** 
1143:Drivers/CMSIS/Include/cmsis_gcc.h **** #if ((defined (__ARM_ARCH_7M__      ) && (__ARM_ARCH_7M__      == 1)) || \
1144:Drivers/CMSIS/Include/cmsis_gcc.h ****      (defined (__ARM_ARCH_7EM__     ) && (__ARM_ARCH_7EM__     == 1)) || \
1145:Drivers/CMSIS/Include/cmsis_gcc.h ****      (defined (__ARM_ARCH_8M_MAIN__ ) && (__ARM_ARCH_8M_MAIN__ == 1))    )
1146:Drivers/CMSIS/Include/cmsis_gcc.h **** /**
1147:Drivers/CMSIS/Include/cmsis_gcc.h ****   \brief   Signed Saturate
1148:Drivers/CMSIS/Include/cmsis_gcc.h ****   \details Saturates a signed value.
1149:Drivers/CMSIS/Include/cmsis_gcc.h ****   \param [in]  ARG1  Value to be saturated
1150:Drivers/CMSIS/Include/cmsis_gcc.h ****   \param [in]  ARG2  Bit position to saturate to (1..32)
1151:Drivers/CMSIS/Include/cmsis_gcc.h ****   \return             Saturated value
1152:Drivers/CMSIS/Include/cmsis_gcc.h ****  */
1153:Drivers/CMSIS/Include/cmsis_gcc.h **** #define __SSAT(ARG1,ARG2) \
1154:Drivers/CMSIS/Include/cmsis_gcc.h **** __extension__ \
1155:Drivers/CMSIS/Include/cmsis_gcc.h **** ({                          \
1156:Drivers/CMSIS/Include/cmsis_gcc.h ****   int32_t __RES, __ARG1 = (ARG1); \
ARM GAS  C:\Users\ACER\AppData\Local\Temp\cclMZ9Th.s 			page 28


1157:Drivers/CMSIS/Include/cmsis_gcc.h ****   __ASM ("ssat %0, %1, %2" : "=r" (__RES) :  "I" (ARG2), "r" (__ARG1) ); \
1158:Drivers/CMSIS/Include/cmsis_gcc.h ****   __RES; \
1159:Drivers/CMSIS/Include/cmsis_gcc.h ****  })
1160:Drivers/CMSIS/Include/cmsis_gcc.h **** 
1161:Drivers/CMSIS/Include/cmsis_gcc.h **** 
1162:Drivers/CMSIS/Include/cmsis_gcc.h **** /**
1163:Drivers/CMSIS/Include/cmsis_gcc.h ****   \brief   Unsigned Saturate
1164:Drivers/CMSIS/Include/cmsis_gcc.h ****   \details Saturates an unsigned value.
1165:Drivers/CMSIS/Include/cmsis_gcc.h ****   \param [in]  ARG1  Value to be saturated
1166:Drivers/CMSIS/Include/cmsis_gcc.h ****   \param [in]  ARG2  Bit position to saturate to (0..31)
1167:Drivers/CMSIS/Include/cmsis_gcc.h ****   \return             Saturated value
1168:Drivers/CMSIS/Include/cmsis_gcc.h ****  */
1169:Drivers/CMSIS/Include/cmsis_gcc.h **** #define __USAT(ARG1,ARG2) \
1170:Drivers/CMSIS/Include/cmsis_gcc.h ****  __extension__ \
1171:Drivers/CMSIS/Include/cmsis_gcc.h **** ({                          \
1172:Drivers/CMSIS/Include/cmsis_gcc.h ****   uint32_t __RES, __ARG1 = (ARG1); \
1173:Drivers/CMSIS/Include/cmsis_gcc.h ****   __ASM ("usat %0, %1, %2" : "=r" (__RES) :  "I" (ARG2), "r" (__ARG1) ); \
1174:Drivers/CMSIS/Include/cmsis_gcc.h ****   __RES; \
1175:Drivers/CMSIS/Include/cmsis_gcc.h ****  })
1176:Drivers/CMSIS/Include/cmsis_gcc.h **** 
1177:Drivers/CMSIS/Include/cmsis_gcc.h **** 
1178:Drivers/CMSIS/Include/cmsis_gcc.h **** /**
1179:Drivers/CMSIS/Include/cmsis_gcc.h ****   \brief   Rotate Right with Extend (32 bit)
1180:Drivers/CMSIS/Include/cmsis_gcc.h ****   \details Moves each bit of a bitstring right by one bit.
1181:Drivers/CMSIS/Include/cmsis_gcc.h ****            The carry input is shifted in at the left end of the bitstring.
1182:Drivers/CMSIS/Include/cmsis_gcc.h ****   \param [in]    value  Value to rotate
1183:Drivers/CMSIS/Include/cmsis_gcc.h ****   \return               Rotated value
1184:Drivers/CMSIS/Include/cmsis_gcc.h ****  */
1185:Drivers/CMSIS/Include/cmsis_gcc.h **** __STATIC_FORCEINLINE uint32_t __RRX(uint32_t value)
1186:Drivers/CMSIS/Include/cmsis_gcc.h **** {
1187:Drivers/CMSIS/Include/cmsis_gcc.h ****   uint32_t result;
1188:Drivers/CMSIS/Include/cmsis_gcc.h **** 
1189:Drivers/CMSIS/Include/cmsis_gcc.h ****   __ASM volatile ("rrx %0, %1" : __CMSIS_GCC_OUT_REG (result) : __CMSIS_GCC_USE_REG (value) );
1190:Drivers/CMSIS/Include/cmsis_gcc.h ****   return(result);
1191:Drivers/CMSIS/Include/cmsis_gcc.h **** }
1192:Drivers/CMSIS/Include/cmsis_gcc.h **** 
1193:Drivers/CMSIS/Include/cmsis_gcc.h **** 
1194:Drivers/CMSIS/Include/cmsis_gcc.h **** /**
1195:Drivers/CMSIS/Include/cmsis_gcc.h ****   \brief   LDRT Unprivileged (8 bit)
1196:Drivers/CMSIS/Include/cmsis_gcc.h ****   \details Executes a Unprivileged LDRT instruction for 8 bit value.
1197:Drivers/CMSIS/Include/cmsis_gcc.h ****   \param [in]    ptr  Pointer to data
1198:Drivers/CMSIS/Include/cmsis_gcc.h ****   \return             value of type uint8_t at (*ptr)
1199:Drivers/CMSIS/Include/cmsis_gcc.h ****  */
1200:Drivers/CMSIS/Include/cmsis_gcc.h **** __STATIC_FORCEINLINE uint8_t __LDRBT(volatile uint8_t *ptr)
1201:Drivers/CMSIS/Include/cmsis_gcc.h **** {
1202:Drivers/CMSIS/Include/cmsis_gcc.h ****     uint32_t result;
1203:Drivers/CMSIS/Include/cmsis_gcc.h **** 
1204:Drivers/CMSIS/Include/cmsis_gcc.h **** #if (__GNUC__ > 4) || (__GNUC__ == 4 && __GNUC_MINOR__ >= 8)
1205:Drivers/CMSIS/Include/cmsis_gcc.h ****    __ASM volatile ("ldrbt %0, %1" : "=r" (result) : "Q" (*ptr) );
1206:Drivers/CMSIS/Include/cmsis_gcc.h **** #else
1207:Drivers/CMSIS/Include/cmsis_gcc.h ****     /* Prior to GCC 4.8, "Q" will be expanded to [rx, #0] which is not
1208:Drivers/CMSIS/Include/cmsis_gcc.h ****        accepted by assembler. So has to use following less efficient pattern.
1209:Drivers/CMSIS/Include/cmsis_gcc.h ****     */
1210:Drivers/CMSIS/Include/cmsis_gcc.h ****    __ASM volatile ("ldrbt %0, [%1]" : "=r" (result) : "r" (ptr) : "memory" );
1211:Drivers/CMSIS/Include/cmsis_gcc.h **** #endif
1212:Drivers/CMSIS/Include/cmsis_gcc.h ****    return ((uint8_t) result);    /* Add explicit type cast here */
1213:Drivers/CMSIS/Include/cmsis_gcc.h **** }
ARM GAS  C:\Users\ACER\AppData\Local\Temp\cclMZ9Th.s 			page 29


1214:Drivers/CMSIS/Include/cmsis_gcc.h **** 
1215:Drivers/CMSIS/Include/cmsis_gcc.h **** 
1216:Drivers/CMSIS/Include/cmsis_gcc.h **** /**
1217:Drivers/CMSIS/Include/cmsis_gcc.h ****   \brief   LDRT Unprivileged (16 bit)
1218:Drivers/CMSIS/Include/cmsis_gcc.h ****   \details Executes a Unprivileged LDRT instruction for 16 bit values.
1219:Drivers/CMSIS/Include/cmsis_gcc.h ****   \param [in]    ptr  Pointer to data
1220:Drivers/CMSIS/Include/cmsis_gcc.h ****   \return        value of type uint16_t at (*ptr)
1221:Drivers/CMSIS/Include/cmsis_gcc.h ****  */
1222:Drivers/CMSIS/Include/cmsis_gcc.h **** __STATIC_FORCEINLINE uint16_t __LDRHT(volatile uint16_t *ptr)
1223:Drivers/CMSIS/Include/cmsis_gcc.h **** {
1224:Drivers/CMSIS/Include/cmsis_gcc.h ****     uint32_t result;
1225:Drivers/CMSIS/Include/cmsis_gcc.h **** 
1226:Drivers/CMSIS/Include/cmsis_gcc.h **** #if (__GNUC__ > 4) || (__GNUC__ == 4 && __GNUC_MINOR__ >= 8)
1227:Drivers/CMSIS/Include/cmsis_gcc.h ****    __ASM volatile ("ldrht %0, %1" : "=r" (result) : "Q" (*ptr) );
1228:Drivers/CMSIS/Include/cmsis_gcc.h **** #else
1229:Drivers/CMSIS/Include/cmsis_gcc.h ****     /* Prior to GCC 4.8, "Q" will be expanded to [rx, #0] which is not
1230:Drivers/CMSIS/Include/cmsis_gcc.h ****        accepted by assembler. So has to use following less efficient pattern.
1231:Drivers/CMSIS/Include/cmsis_gcc.h ****     */
1232:Drivers/CMSIS/Include/cmsis_gcc.h ****    __ASM volatile ("ldrht %0, [%1]" : "=r" (result) : "r" (ptr) : "memory" );
1233:Drivers/CMSIS/Include/cmsis_gcc.h **** #endif
1234:Drivers/CMSIS/Include/cmsis_gcc.h ****    return ((uint16_t) result);    /* Add explicit type cast here */
1235:Drivers/CMSIS/Include/cmsis_gcc.h **** }
1236:Drivers/CMSIS/Include/cmsis_gcc.h **** 
1237:Drivers/CMSIS/Include/cmsis_gcc.h **** 
1238:Drivers/CMSIS/Include/cmsis_gcc.h **** /**
1239:Drivers/CMSIS/Include/cmsis_gcc.h ****   \brief   LDRT Unprivileged (32 bit)
1240:Drivers/CMSIS/Include/cmsis_gcc.h ****   \details Executes a Unprivileged LDRT instruction for 32 bit values.
1241:Drivers/CMSIS/Include/cmsis_gcc.h ****   \param [in]    ptr  Pointer to data
1242:Drivers/CMSIS/Include/cmsis_gcc.h ****   \return        value of type uint32_t at (*ptr)
1243:Drivers/CMSIS/Include/cmsis_gcc.h ****  */
1244:Drivers/CMSIS/Include/cmsis_gcc.h **** __STATIC_FORCEINLINE uint32_t __LDRT(volatile uint32_t *ptr)
1245:Drivers/CMSIS/Include/cmsis_gcc.h **** {
1246:Drivers/CMSIS/Include/cmsis_gcc.h ****     uint32_t result;
1247:Drivers/CMSIS/Include/cmsis_gcc.h **** 
1248:Drivers/CMSIS/Include/cmsis_gcc.h ****    __ASM volatile ("ldrt %0, %1" : "=r" (result) : "Q" (*ptr) );
1249:Drivers/CMSIS/Include/cmsis_gcc.h ****    return(result);
1250:Drivers/CMSIS/Include/cmsis_gcc.h **** }
1251:Drivers/CMSIS/Include/cmsis_gcc.h **** 
1252:Drivers/CMSIS/Include/cmsis_gcc.h **** 
1253:Drivers/CMSIS/Include/cmsis_gcc.h **** /**
1254:Drivers/CMSIS/Include/cmsis_gcc.h ****   \brief   STRT Unprivileged (8 bit)
1255:Drivers/CMSIS/Include/cmsis_gcc.h ****   \details Executes a Unprivileged STRT instruction for 8 bit values.
1256:Drivers/CMSIS/Include/cmsis_gcc.h ****   \param [in]  value  Value to store
1257:Drivers/CMSIS/Include/cmsis_gcc.h ****   \param [in]    ptr  Pointer to location
1258:Drivers/CMSIS/Include/cmsis_gcc.h ****  */
1259:Drivers/CMSIS/Include/cmsis_gcc.h **** __STATIC_FORCEINLINE void __STRBT(uint8_t value, volatile uint8_t *ptr)
1260:Drivers/CMSIS/Include/cmsis_gcc.h **** {
1261:Drivers/CMSIS/Include/cmsis_gcc.h ****    __ASM volatile ("strbt %1, %0" : "=Q" (*ptr) : "r" ((uint32_t)value) );
1262:Drivers/CMSIS/Include/cmsis_gcc.h **** }
1263:Drivers/CMSIS/Include/cmsis_gcc.h **** 
1264:Drivers/CMSIS/Include/cmsis_gcc.h **** 
1265:Drivers/CMSIS/Include/cmsis_gcc.h **** /**
1266:Drivers/CMSIS/Include/cmsis_gcc.h ****   \brief   STRT Unprivileged (16 bit)
1267:Drivers/CMSIS/Include/cmsis_gcc.h ****   \details Executes a Unprivileged STRT instruction for 16 bit values.
1268:Drivers/CMSIS/Include/cmsis_gcc.h ****   \param [in]  value  Value to store
1269:Drivers/CMSIS/Include/cmsis_gcc.h ****   \param [in]    ptr  Pointer to location
1270:Drivers/CMSIS/Include/cmsis_gcc.h ****  */
ARM GAS  C:\Users\ACER\AppData\Local\Temp\cclMZ9Th.s 			page 30


1271:Drivers/CMSIS/Include/cmsis_gcc.h **** __STATIC_FORCEINLINE void __STRHT(uint16_t value, volatile uint16_t *ptr)
1272:Drivers/CMSIS/Include/cmsis_gcc.h **** {
1273:Drivers/CMSIS/Include/cmsis_gcc.h ****    __ASM volatile ("strht %1, %0" : "=Q" (*ptr) : "r" ((uint32_t)value) );
1274:Drivers/CMSIS/Include/cmsis_gcc.h **** }
1275:Drivers/CMSIS/Include/cmsis_gcc.h **** 
1276:Drivers/CMSIS/Include/cmsis_gcc.h **** 
1277:Drivers/CMSIS/Include/cmsis_gcc.h **** /**
1278:Drivers/CMSIS/Include/cmsis_gcc.h ****   \brief   STRT Unprivileged (32 bit)
1279:Drivers/CMSIS/Include/cmsis_gcc.h ****   \details Executes a Unprivileged STRT instruction for 32 bit values.
1280:Drivers/CMSIS/Include/cmsis_gcc.h ****   \param [in]  value  Value to store
1281:Drivers/CMSIS/Include/cmsis_gcc.h ****   \param [in]    ptr  Pointer to location
1282:Drivers/CMSIS/Include/cmsis_gcc.h ****  */
1283:Drivers/CMSIS/Include/cmsis_gcc.h **** __STATIC_FORCEINLINE void __STRT(uint32_t value, volatile uint32_t *ptr)
1284:Drivers/CMSIS/Include/cmsis_gcc.h **** {
1285:Drivers/CMSIS/Include/cmsis_gcc.h ****    __ASM volatile ("strt %1, %0" : "=Q" (*ptr) : "r" (value) );
1286:Drivers/CMSIS/Include/cmsis_gcc.h **** }
1287:Drivers/CMSIS/Include/cmsis_gcc.h **** 
1288:Drivers/CMSIS/Include/cmsis_gcc.h **** #else  /* ((defined (__ARM_ARCH_7M__      ) && (__ARM_ARCH_7M__      == 1)) || \
1289:Drivers/CMSIS/Include/cmsis_gcc.h ****            (defined (__ARM_ARCH_7EM__     ) && (__ARM_ARCH_7EM__     == 1)) || \
1290:Drivers/CMSIS/Include/cmsis_gcc.h ****            (defined (__ARM_ARCH_8M_MAIN__ ) && (__ARM_ARCH_8M_MAIN__ == 1))    ) */
1291:Drivers/CMSIS/Include/cmsis_gcc.h **** 
1292:Drivers/CMSIS/Include/cmsis_gcc.h **** /**
1293:Drivers/CMSIS/Include/cmsis_gcc.h ****   \brief   Signed Saturate
1294:Drivers/CMSIS/Include/cmsis_gcc.h ****   \details Saturates a signed value.
1295:Drivers/CMSIS/Include/cmsis_gcc.h ****   \param [in]  value  Value to be saturated
1296:Drivers/CMSIS/Include/cmsis_gcc.h ****   \param [in]    sat  Bit position to saturate to (1..32)
1297:Drivers/CMSIS/Include/cmsis_gcc.h ****   \return             Saturated value
1298:Drivers/CMSIS/Include/cmsis_gcc.h ****  */
1299:Drivers/CMSIS/Include/cmsis_gcc.h **** __STATIC_FORCEINLINE int32_t __SSAT(int32_t val, uint32_t sat)
1300:Drivers/CMSIS/Include/cmsis_gcc.h **** {
1301:Drivers/CMSIS/Include/cmsis_gcc.h ****   if ((sat >= 1U) && (sat <= 32U))
1302:Drivers/CMSIS/Include/cmsis_gcc.h ****   {
1303:Drivers/CMSIS/Include/cmsis_gcc.h ****     const int32_t max = (int32_t)((1U << (sat - 1U)) - 1U);
1304:Drivers/CMSIS/Include/cmsis_gcc.h ****     const int32_t min = -1 - max ;
1305:Drivers/CMSIS/Include/cmsis_gcc.h ****     if (val > max)
1306:Drivers/CMSIS/Include/cmsis_gcc.h ****     {
1307:Drivers/CMSIS/Include/cmsis_gcc.h ****       return max;
1308:Drivers/CMSIS/Include/cmsis_gcc.h ****     }
1309:Drivers/CMSIS/Include/cmsis_gcc.h ****     else if (val < min)
1310:Drivers/CMSIS/Include/cmsis_gcc.h ****     {
1311:Drivers/CMSIS/Include/cmsis_gcc.h ****       return min;
1312:Drivers/CMSIS/Include/cmsis_gcc.h ****     }
1313:Drivers/CMSIS/Include/cmsis_gcc.h ****   }
1314:Drivers/CMSIS/Include/cmsis_gcc.h ****   return val;
1315:Drivers/CMSIS/Include/cmsis_gcc.h **** }
1316:Drivers/CMSIS/Include/cmsis_gcc.h **** 
1317:Drivers/CMSIS/Include/cmsis_gcc.h **** /**
1318:Drivers/CMSIS/Include/cmsis_gcc.h ****   \brief   Unsigned Saturate
1319:Drivers/CMSIS/Include/cmsis_gcc.h ****   \details Saturates an unsigned value.
1320:Drivers/CMSIS/Include/cmsis_gcc.h ****   \param [in]  value  Value to be saturated
1321:Drivers/CMSIS/Include/cmsis_gcc.h ****   \param [in]    sat  Bit position to saturate to (0..31)
1322:Drivers/CMSIS/Include/cmsis_gcc.h ****   \return             Saturated value
1323:Drivers/CMSIS/Include/cmsis_gcc.h ****  */
1324:Drivers/CMSIS/Include/cmsis_gcc.h **** __STATIC_FORCEINLINE uint32_t __USAT(int32_t val, uint32_t sat)
1325:Drivers/CMSIS/Include/cmsis_gcc.h **** {
1326:Drivers/CMSIS/Include/cmsis_gcc.h ****   if (sat <= 31U)
1327:Drivers/CMSIS/Include/cmsis_gcc.h ****   {
ARM GAS  C:\Users\ACER\AppData\Local\Temp\cclMZ9Th.s 			page 31


1328:Drivers/CMSIS/Include/cmsis_gcc.h ****     const uint32_t max = ((1U << sat) - 1U);
1329:Drivers/CMSIS/Include/cmsis_gcc.h ****     if (val > (int32_t)max)
1330:Drivers/CMSIS/Include/cmsis_gcc.h ****     {
1331:Drivers/CMSIS/Include/cmsis_gcc.h ****       return max;
1332:Drivers/CMSIS/Include/cmsis_gcc.h ****     }
1333:Drivers/CMSIS/Include/cmsis_gcc.h ****     else if (val < 0)
1334:Drivers/CMSIS/Include/cmsis_gcc.h ****     {
1335:Drivers/CMSIS/Include/cmsis_gcc.h ****       return 0U;
1336:Drivers/CMSIS/Include/cmsis_gcc.h ****     }
1337:Drivers/CMSIS/Include/cmsis_gcc.h ****   }
1338:Drivers/CMSIS/Include/cmsis_gcc.h ****   return (uint32_t)val;
1339:Drivers/CMSIS/Include/cmsis_gcc.h **** }
1340:Drivers/CMSIS/Include/cmsis_gcc.h **** 
1341:Drivers/CMSIS/Include/cmsis_gcc.h **** #endif /* ((defined (__ARM_ARCH_7M__      ) && (__ARM_ARCH_7M__      == 1)) || \
1342:Drivers/CMSIS/Include/cmsis_gcc.h ****            (defined (__ARM_ARCH_7EM__     ) && (__ARM_ARCH_7EM__     == 1)) || \
1343:Drivers/CMSIS/Include/cmsis_gcc.h ****            (defined (__ARM_ARCH_8M_MAIN__ ) && (__ARM_ARCH_8M_MAIN__ == 1))    ) */
1344:Drivers/CMSIS/Include/cmsis_gcc.h **** 
1345:Drivers/CMSIS/Include/cmsis_gcc.h **** 
1346:Drivers/CMSIS/Include/cmsis_gcc.h **** #if ((defined (__ARM_ARCH_8M_MAIN__ ) && (__ARM_ARCH_8M_MAIN__ == 1)) || \
1347:Drivers/CMSIS/Include/cmsis_gcc.h ****      (defined (__ARM_ARCH_8M_BASE__ ) && (__ARM_ARCH_8M_BASE__ == 1))    )
1348:Drivers/CMSIS/Include/cmsis_gcc.h **** /**
1349:Drivers/CMSIS/Include/cmsis_gcc.h ****   \brief   Load-Acquire (8 bit)
1350:Drivers/CMSIS/Include/cmsis_gcc.h ****   \details Executes a LDAB instruction for 8 bit value.
1351:Drivers/CMSIS/Include/cmsis_gcc.h ****   \param [in]    ptr  Pointer to data
1352:Drivers/CMSIS/Include/cmsis_gcc.h ****   \return             value of type uint8_t at (*ptr)
1353:Drivers/CMSIS/Include/cmsis_gcc.h ****  */
1354:Drivers/CMSIS/Include/cmsis_gcc.h **** __STATIC_FORCEINLINE uint8_t __LDAB(volatile uint8_t *ptr)
1355:Drivers/CMSIS/Include/cmsis_gcc.h **** {
1356:Drivers/CMSIS/Include/cmsis_gcc.h ****     uint32_t result;
1357:Drivers/CMSIS/Include/cmsis_gcc.h **** 
1358:Drivers/CMSIS/Include/cmsis_gcc.h ****    __ASM volatile ("ldab %0, %1" : "=r" (result) : "Q" (*ptr) );
1359:Drivers/CMSIS/Include/cmsis_gcc.h ****    return ((uint8_t) result);
1360:Drivers/CMSIS/Include/cmsis_gcc.h **** }
1361:Drivers/CMSIS/Include/cmsis_gcc.h **** 
1362:Drivers/CMSIS/Include/cmsis_gcc.h **** 
1363:Drivers/CMSIS/Include/cmsis_gcc.h **** /**
1364:Drivers/CMSIS/Include/cmsis_gcc.h ****   \brief   Load-Acquire (16 bit)
1365:Drivers/CMSIS/Include/cmsis_gcc.h ****   \details Executes a LDAH instruction for 16 bit values.
1366:Drivers/CMSIS/Include/cmsis_gcc.h ****   \param [in]    ptr  Pointer to data
1367:Drivers/CMSIS/Include/cmsis_gcc.h ****   \return        value of type uint16_t at (*ptr)
1368:Drivers/CMSIS/Include/cmsis_gcc.h ****  */
1369:Drivers/CMSIS/Include/cmsis_gcc.h **** __STATIC_FORCEINLINE uint16_t __LDAH(volatile uint16_t *ptr)
1370:Drivers/CMSIS/Include/cmsis_gcc.h **** {
1371:Drivers/CMSIS/Include/cmsis_gcc.h ****     uint32_t result;
1372:Drivers/CMSIS/Include/cmsis_gcc.h **** 
1373:Drivers/CMSIS/Include/cmsis_gcc.h ****    __ASM volatile ("ldah %0, %1" : "=r" (result) : "Q" (*ptr) );
1374:Drivers/CMSIS/Include/cmsis_gcc.h ****    return ((uint16_t) result);
1375:Drivers/CMSIS/Include/cmsis_gcc.h **** }
1376:Drivers/CMSIS/Include/cmsis_gcc.h **** 
1377:Drivers/CMSIS/Include/cmsis_gcc.h **** 
1378:Drivers/CMSIS/Include/cmsis_gcc.h **** /**
1379:Drivers/CMSIS/Include/cmsis_gcc.h ****   \brief   Load-Acquire (32 bit)
1380:Drivers/CMSIS/Include/cmsis_gcc.h ****   \details Executes a LDA instruction for 32 bit values.
1381:Drivers/CMSIS/Include/cmsis_gcc.h ****   \param [in]    ptr  Pointer to data
1382:Drivers/CMSIS/Include/cmsis_gcc.h ****   \return        value of type uint32_t at (*ptr)
1383:Drivers/CMSIS/Include/cmsis_gcc.h ****  */
1384:Drivers/CMSIS/Include/cmsis_gcc.h **** __STATIC_FORCEINLINE uint32_t __LDA(volatile uint32_t *ptr)
ARM GAS  C:\Users\ACER\AppData\Local\Temp\cclMZ9Th.s 			page 32


1385:Drivers/CMSIS/Include/cmsis_gcc.h **** {
1386:Drivers/CMSIS/Include/cmsis_gcc.h ****     uint32_t result;
1387:Drivers/CMSIS/Include/cmsis_gcc.h **** 
1388:Drivers/CMSIS/Include/cmsis_gcc.h ****    __ASM volatile ("lda %0, %1" : "=r" (result) : "Q" (*ptr) );
1389:Drivers/CMSIS/Include/cmsis_gcc.h ****    return(result);
1390:Drivers/CMSIS/Include/cmsis_gcc.h **** }
1391:Drivers/CMSIS/Include/cmsis_gcc.h **** 
1392:Drivers/CMSIS/Include/cmsis_gcc.h **** 
1393:Drivers/CMSIS/Include/cmsis_gcc.h **** /**
1394:Drivers/CMSIS/Include/cmsis_gcc.h ****   \brief   Store-Release (8 bit)
1395:Drivers/CMSIS/Include/cmsis_gcc.h ****   \details Executes a STLB instruction for 8 bit values.
1396:Drivers/CMSIS/Include/cmsis_gcc.h ****   \param [in]  value  Value to store
1397:Drivers/CMSIS/Include/cmsis_gcc.h ****   \param [in]    ptr  Pointer to location
1398:Drivers/CMSIS/Include/cmsis_gcc.h ****  */
1399:Drivers/CMSIS/Include/cmsis_gcc.h **** __STATIC_FORCEINLINE void __STLB(uint8_t value, volatile uint8_t *ptr)
1400:Drivers/CMSIS/Include/cmsis_gcc.h **** {
1401:Drivers/CMSIS/Include/cmsis_gcc.h ****    __ASM volatile ("stlb %1, %0" : "=Q" (*ptr) : "r" ((uint32_t)value) );
1402:Drivers/CMSIS/Include/cmsis_gcc.h **** }
1403:Drivers/CMSIS/Include/cmsis_gcc.h **** 
1404:Drivers/CMSIS/Include/cmsis_gcc.h **** 
1405:Drivers/CMSIS/Include/cmsis_gcc.h **** /**
1406:Drivers/CMSIS/Include/cmsis_gcc.h ****   \brief   Store-Release (16 bit)
1407:Drivers/CMSIS/Include/cmsis_gcc.h ****   \details Executes a STLH instruction for 16 bit values.
1408:Drivers/CMSIS/Include/cmsis_gcc.h ****   \param [in]  value  Value to store
1409:Drivers/CMSIS/Include/cmsis_gcc.h ****   \param [in]    ptr  Pointer to location
1410:Drivers/CMSIS/Include/cmsis_gcc.h ****  */
1411:Drivers/CMSIS/Include/cmsis_gcc.h **** __STATIC_FORCEINLINE void __STLH(uint16_t value, volatile uint16_t *ptr)
1412:Drivers/CMSIS/Include/cmsis_gcc.h **** {
1413:Drivers/CMSIS/Include/cmsis_gcc.h ****    __ASM volatile ("stlh %1, %0" : "=Q" (*ptr) : "r" ((uint32_t)value) );
1414:Drivers/CMSIS/Include/cmsis_gcc.h **** }
1415:Drivers/CMSIS/Include/cmsis_gcc.h **** 
1416:Drivers/CMSIS/Include/cmsis_gcc.h **** 
1417:Drivers/CMSIS/Include/cmsis_gcc.h **** /**
1418:Drivers/CMSIS/Include/cmsis_gcc.h ****   \brief   Store-Release (32 bit)
1419:Drivers/CMSIS/Include/cmsis_gcc.h ****   \details Executes a STL instruction for 32 bit values.
1420:Drivers/CMSIS/Include/cmsis_gcc.h ****   \param [in]  value  Value to store
1421:Drivers/CMSIS/Include/cmsis_gcc.h ****   \param [in]    ptr  Pointer to location
1422:Drivers/CMSIS/Include/cmsis_gcc.h ****  */
1423:Drivers/CMSIS/Include/cmsis_gcc.h **** __STATIC_FORCEINLINE void __STL(uint32_t value, volatile uint32_t *ptr)
1424:Drivers/CMSIS/Include/cmsis_gcc.h **** {
1425:Drivers/CMSIS/Include/cmsis_gcc.h ****    __ASM volatile ("stl %1, %0" : "=Q" (*ptr) : "r" ((uint32_t)value) );
1426:Drivers/CMSIS/Include/cmsis_gcc.h **** }
1427:Drivers/CMSIS/Include/cmsis_gcc.h **** 
1428:Drivers/CMSIS/Include/cmsis_gcc.h **** 
1429:Drivers/CMSIS/Include/cmsis_gcc.h **** /**
1430:Drivers/CMSIS/Include/cmsis_gcc.h ****   \brief   Load-Acquire Exclusive (8 bit)
1431:Drivers/CMSIS/Include/cmsis_gcc.h ****   \details Executes a LDAB exclusive instruction for 8 bit value.
1432:Drivers/CMSIS/Include/cmsis_gcc.h ****   \param [in]    ptr  Pointer to data
1433:Drivers/CMSIS/Include/cmsis_gcc.h ****   \return             value of type uint8_t at (*ptr)
1434:Drivers/CMSIS/Include/cmsis_gcc.h ****  */
1435:Drivers/CMSIS/Include/cmsis_gcc.h **** __STATIC_FORCEINLINE uint8_t __LDAEXB(volatile uint8_t *ptr)
1436:Drivers/CMSIS/Include/cmsis_gcc.h **** {
1437:Drivers/CMSIS/Include/cmsis_gcc.h ****     uint32_t result;
1438:Drivers/CMSIS/Include/cmsis_gcc.h **** 
1439:Drivers/CMSIS/Include/cmsis_gcc.h ****    __ASM volatile ("ldaexb %0, %1" : "=r" (result) : "Q" (*ptr) );
1440:Drivers/CMSIS/Include/cmsis_gcc.h ****    return ((uint8_t) result);
1441:Drivers/CMSIS/Include/cmsis_gcc.h **** }
ARM GAS  C:\Users\ACER\AppData\Local\Temp\cclMZ9Th.s 			page 33


1442:Drivers/CMSIS/Include/cmsis_gcc.h **** 
1443:Drivers/CMSIS/Include/cmsis_gcc.h **** 
1444:Drivers/CMSIS/Include/cmsis_gcc.h **** /**
1445:Drivers/CMSIS/Include/cmsis_gcc.h ****   \brief   Load-Acquire Exclusive (16 bit)
1446:Drivers/CMSIS/Include/cmsis_gcc.h ****   \details Executes a LDAH exclusive instruction for 16 bit values.
1447:Drivers/CMSIS/Include/cmsis_gcc.h ****   \param [in]    ptr  Pointer to data
1448:Drivers/CMSIS/Include/cmsis_gcc.h ****   \return        value of type uint16_t at (*ptr)
1449:Drivers/CMSIS/Include/cmsis_gcc.h ****  */
1450:Drivers/CMSIS/Include/cmsis_gcc.h **** __STATIC_FORCEINLINE uint16_t __LDAEXH(volatile uint16_t *ptr)
1451:Drivers/CMSIS/Include/cmsis_gcc.h **** {
1452:Drivers/CMSIS/Include/cmsis_gcc.h ****     uint32_t result;
1453:Drivers/CMSIS/Include/cmsis_gcc.h **** 
1454:Drivers/CMSIS/Include/cmsis_gcc.h ****    __ASM volatile ("ldaexh %0, %1" : "=r" (result) : "Q" (*ptr) );
1455:Drivers/CMSIS/Include/cmsis_gcc.h ****    return ((uint16_t) result);
1456:Drivers/CMSIS/Include/cmsis_gcc.h **** }
1457:Drivers/CMSIS/Include/cmsis_gcc.h **** 
1458:Drivers/CMSIS/Include/cmsis_gcc.h **** 
1459:Drivers/CMSIS/Include/cmsis_gcc.h **** /**
1460:Drivers/CMSIS/Include/cmsis_gcc.h ****   \brief   Load-Acquire Exclusive (32 bit)
1461:Drivers/CMSIS/Include/cmsis_gcc.h ****   \details Executes a LDA exclusive instruction for 32 bit values.
1462:Drivers/CMSIS/Include/cmsis_gcc.h ****   \param [in]    ptr  Pointer to data
1463:Drivers/CMSIS/Include/cmsis_gcc.h ****   \return        value of type uint32_t at (*ptr)
1464:Drivers/CMSIS/Include/cmsis_gcc.h ****  */
1465:Drivers/CMSIS/Include/cmsis_gcc.h **** __STATIC_FORCEINLINE uint32_t __LDAEX(volatile uint32_t *ptr)
1466:Drivers/CMSIS/Include/cmsis_gcc.h **** {
1467:Drivers/CMSIS/Include/cmsis_gcc.h ****     uint32_t result;
1468:Drivers/CMSIS/Include/cmsis_gcc.h **** 
1469:Drivers/CMSIS/Include/cmsis_gcc.h ****    __ASM volatile ("ldaex %0, %1" : "=r" (result) : "Q" (*ptr) );
1470:Drivers/CMSIS/Include/cmsis_gcc.h ****    return(result);
1471:Drivers/CMSIS/Include/cmsis_gcc.h **** }
1472:Drivers/CMSIS/Include/cmsis_gcc.h **** 
1473:Drivers/CMSIS/Include/cmsis_gcc.h **** 
1474:Drivers/CMSIS/Include/cmsis_gcc.h **** /**
1475:Drivers/CMSIS/Include/cmsis_gcc.h ****   \brief   Store-Release Exclusive (8 bit)
1476:Drivers/CMSIS/Include/cmsis_gcc.h ****   \details Executes a STLB exclusive instruction for 8 bit values.
1477:Drivers/CMSIS/Include/cmsis_gcc.h ****   \param [in]  value  Value to store
1478:Drivers/CMSIS/Include/cmsis_gcc.h ****   \param [in]    ptr  Pointer to location
1479:Drivers/CMSIS/Include/cmsis_gcc.h ****   \return          0  Function succeeded
1480:Drivers/CMSIS/Include/cmsis_gcc.h ****   \return          1  Function failed
1481:Drivers/CMSIS/Include/cmsis_gcc.h ****  */
1482:Drivers/CMSIS/Include/cmsis_gcc.h **** __STATIC_FORCEINLINE uint32_t __STLEXB(uint8_t value, volatile uint8_t *ptr)
1483:Drivers/CMSIS/Include/cmsis_gcc.h **** {
1484:Drivers/CMSIS/Include/cmsis_gcc.h ****    uint32_t result;
1485:Drivers/CMSIS/Include/cmsis_gcc.h **** 
1486:Drivers/CMSIS/Include/cmsis_gcc.h ****    __ASM volatile ("stlexb %0, %2, %1" : "=&r" (result), "=Q" (*ptr) : "r" ((uint32_t)value) );
1487:Drivers/CMSIS/Include/cmsis_gcc.h ****    return(result);
1488:Drivers/CMSIS/Include/cmsis_gcc.h **** }
1489:Drivers/CMSIS/Include/cmsis_gcc.h **** 
1490:Drivers/CMSIS/Include/cmsis_gcc.h **** 
1491:Drivers/CMSIS/Include/cmsis_gcc.h **** /**
1492:Drivers/CMSIS/Include/cmsis_gcc.h ****   \brief   Store-Release Exclusive (16 bit)
1493:Drivers/CMSIS/Include/cmsis_gcc.h ****   \details Executes a STLH exclusive instruction for 16 bit values.
1494:Drivers/CMSIS/Include/cmsis_gcc.h ****   \param [in]  value  Value to store
1495:Drivers/CMSIS/Include/cmsis_gcc.h ****   \param [in]    ptr  Pointer to location
1496:Drivers/CMSIS/Include/cmsis_gcc.h ****   \return          0  Function succeeded
1497:Drivers/CMSIS/Include/cmsis_gcc.h ****   \return          1  Function failed
1498:Drivers/CMSIS/Include/cmsis_gcc.h ****  */
ARM GAS  C:\Users\ACER\AppData\Local\Temp\cclMZ9Th.s 			page 34


1499:Drivers/CMSIS/Include/cmsis_gcc.h **** __STATIC_FORCEINLINE uint32_t __STLEXH(uint16_t value, volatile uint16_t *ptr)
1500:Drivers/CMSIS/Include/cmsis_gcc.h **** {
1501:Drivers/CMSIS/Include/cmsis_gcc.h ****    uint32_t result;
1502:Drivers/CMSIS/Include/cmsis_gcc.h **** 
1503:Drivers/CMSIS/Include/cmsis_gcc.h ****    __ASM volatile ("stlexh %0, %2, %1" : "=&r" (result), "=Q" (*ptr) : "r" ((uint32_t)value) );
1504:Drivers/CMSIS/Include/cmsis_gcc.h ****    return(result);
1505:Drivers/CMSIS/Include/cmsis_gcc.h **** }
1506:Drivers/CMSIS/Include/cmsis_gcc.h **** 
1507:Drivers/CMSIS/Include/cmsis_gcc.h **** 
1508:Drivers/CMSIS/Include/cmsis_gcc.h **** /**
1509:Drivers/CMSIS/Include/cmsis_gcc.h ****   \brief   Store-Release Exclusive (32 bit)
1510:Drivers/CMSIS/Include/cmsis_gcc.h ****   \details Executes a STL exclusive instruction for 32 bit values.
1511:Drivers/CMSIS/Include/cmsis_gcc.h ****   \param [in]  value  Value to store
1512:Drivers/CMSIS/Include/cmsis_gcc.h ****   \param [in]    ptr  Pointer to location
1513:Drivers/CMSIS/Include/cmsis_gcc.h ****   \return          0  Function succeeded
1514:Drivers/CMSIS/Include/cmsis_gcc.h ****   \return          1  Function failed
1515:Drivers/CMSIS/Include/cmsis_gcc.h ****  */
1516:Drivers/CMSIS/Include/cmsis_gcc.h **** __STATIC_FORCEINLINE uint32_t __STLEX(uint32_t value, volatile uint32_t *ptr)
1517:Drivers/CMSIS/Include/cmsis_gcc.h **** {
1518:Drivers/CMSIS/Include/cmsis_gcc.h ****    uint32_t result;
1519:Drivers/CMSIS/Include/cmsis_gcc.h **** 
1520:Drivers/CMSIS/Include/cmsis_gcc.h ****    __ASM volatile ("stlex %0, %2, %1" : "=&r" (result), "=Q" (*ptr) : "r" ((uint32_t)value) );
1521:Drivers/CMSIS/Include/cmsis_gcc.h ****    return(result);
1522:Drivers/CMSIS/Include/cmsis_gcc.h **** }
1523:Drivers/CMSIS/Include/cmsis_gcc.h **** 
1524:Drivers/CMSIS/Include/cmsis_gcc.h **** #endif /* ((defined (__ARM_ARCH_8M_MAIN__ ) && (__ARM_ARCH_8M_MAIN__ == 1)) || \
1525:Drivers/CMSIS/Include/cmsis_gcc.h ****            (defined (__ARM_ARCH_8M_BASE__ ) && (__ARM_ARCH_8M_BASE__ == 1))    ) */
1526:Drivers/CMSIS/Include/cmsis_gcc.h **** 
1527:Drivers/CMSIS/Include/cmsis_gcc.h **** /*@}*/ /* end of group CMSIS_Core_InstructionInterface */
1528:Drivers/CMSIS/Include/cmsis_gcc.h **** 
1529:Drivers/CMSIS/Include/cmsis_gcc.h **** 
1530:Drivers/CMSIS/Include/cmsis_gcc.h **** /* ###################  Compiler specific Intrinsics  ########################### */
1531:Drivers/CMSIS/Include/cmsis_gcc.h **** /** \defgroup CMSIS_SIMD_intrinsics CMSIS SIMD Intrinsics
1532:Drivers/CMSIS/Include/cmsis_gcc.h ****   Access to dedicated SIMD instructions
1533:Drivers/CMSIS/Include/cmsis_gcc.h ****   @{
1534:Drivers/CMSIS/Include/cmsis_gcc.h **** */
1535:Drivers/CMSIS/Include/cmsis_gcc.h **** 
1536:Drivers/CMSIS/Include/cmsis_gcc.h **** #if (defined (__ARM_FEATURE_DSP) && (__ARM_FEATURE_DSP == 1))
1537:Drivers/CMSIS/Include/cmsis_gcc.h **** 
1538:Drivers/CMSIS/Include/cmsis_gcc.h **** __STATIC_FORCEINLINE uint32_t __SADD8(uint32_t op1, uint32_t op2)
1539:Drivers/CMSIS/Include/cmsis_gcc.h **** {
1540:Drivers/CMSIS/Include/cmsis_gcc.h ****   uint32_t result;
1541:Drivers/CMSIS/Include/cmsis_gcc.h **** 
1542:Drivers/CMSIS/Include/cmsis_gcc.h ****   __ASM volatile ("sadd8 %0, %1, %2" : "=r" (result) : "r" (op1), "r" (op2) );
1543:Drivers/CMSIS/Include/cmsis_gcc.h ****   return(result);
1544:Drivers/CMSIS/Include/cmsis_gcc.h **** }
1545:Drivers/CMSIS/Include/cmsis_gcc.h **** 
1546:Drivers/CMSIS/Include/cmsis_gcc.h **** __STATIC_FORCEINLINE uint32_t __QADD8(uint32_t op1, uint32_t op2)
1547:Drivers/CMSIS/Include/cmsis_gcc.h **** {
1548:Drivers/CMSIS/Include/cmsis_gcc.h ****   uint32_t result;
1549:Drivers/CMSIS/Include/cmsis_gcc.h **** 
1550:Drivers/CMSIS/Include/cmsis_gcc.h ****   __ASM volatile ("qadd8 %0, %1, %2" : "=r" (result) : "r" (op1), "r" (op2) );
1551:Drivers/CMSIS/Include/cmsis_gcc.h ****   return(result);
1552:Drivers/CMSIS/Include/cmsis_gcc.h **** }
1553:Drivers/CMSIS/Include/cmsis_gcc.h **** 
1554:Drivers/CMSIS/Include/cmsis_gcc.h **** __STATIC_FORCEINLINE uint32_t __SHADD8(uint32_t op1, uint32_t op2)
1555:Drivers/CMSIS/Include/cmsis_gcc.h **** {
ARM GAS  C:\Users\ACER\AppData\Local\Temp\cclMZ9Th.s 			page 35


1556:Drivers/CMSIS/Include/cmsis_gcc.h ****   uint32_t result;
1557:Drivers/CMSIS/Include/cmsis_gcc.h **** 
1558:Drivers/CMSIS/Include/cmsis_gcc.h ****   __ASM volatile ("shadd8 %0, %1, %2" : "=r" (result) : "r" (op1), "r" (op2) );
1559:Drivers/CMSIS/Include/cmsis_gcc.h ****   return(result);
1560:Drivers/CMSIS/Include/cmsis_gcc.h **** }
1561:Drivers/CMSIS/Include/cmsis_gcc.h **** 
1562:Drivers/CMSIS/Include/cmsis_gcc.h **** __STATIC_FORCEINLINE uint32_t __UADD8(uint32_t op1, uint32_t op2)
1563:Drivers/CMSIS/Include/cmsis_gcc.h **** {
1564:Drivers/CMSIS/Include/cmsis_gcc.h ****   uint32_t result;
1565:Drivers/CMSIS/Include/cmsis_gcc.h **** 
1566:Drivers/CMSIS/Include/cmsis_gcc.h ****   __ASM volatile ("uadd8 %0, %1, %2" : "=r" (result) : "r" (op1), "r" (op2) );
1567:Drivers/CMSIS/Include/cmsis_gcc.h ****   return(result);
1568:Drivers/CMSIS/Include/cmsis_gcc.h **** }
1569:Drivers/CMSIS/Include/cmsis_gcc.h **** 
1570:Drivers/CMSIS/Include/cmsis_gcc.h **** __STATIC_FORCEINLINE uint32_t __UQADD8(uint32_t op1, uint32_t op2)
1571:Drivers/CMSIS/Include/cmsis_gcc.h **** {
1572:Drivers/CMSIS/Include/cmsis_gcc.h ****   uint32_t result;
1573:Drivers/CMSIS/Include/cmsis_gcc.h **** 
1574:Drivers/CMSIS/Include/cmsis_gcc.h ****   __ASM volatile ("uqadd8 %0, %1, %2" : "=r" (result) : "r" (op1), "r" (op2) );
1575:Drivers/CMSIS/Include/cmsis_gcc.h ****   return(result);
1576:Drivers/CMSIS/Include/cmsis_gcc.h **** }
1577:Drivers/CMSIS/Include/cmsis_gcc.h **** 
1578:Drivers/CMSIS/Include/cmsis_gcc.h **** __STATIC_FORCEINLINE uint32_t __UHADD8(uint32_t op1, uint32_t op2)
1579:Drivers/CMSIS/Include/cmsis_gcc.h **** {
1580:Drivers/CMSIS/Include/cmsis_gcc.h ****   uint32_t result;
1581:Drivers/CMSIS/Include/cmsis_gcc.h **** 
1582:Drivers/CMSIS/Include/cmsis_gcc.h ****   __ASM volatile ("uhadd8 %0, %1, %2" : "=r" (result) : "r" (op1), "r" (op2) );
1583:Drivers/CMSIS/Include/cmsis_gcc.h ****   return(result);
1584:Drivers/CMSIS/Include/cmsis_gcc.h **** }
1585:Drivers/CMSIS/Include/cmsis_gcc.h **** 
1586:Drivers/CMSIS/Include/cmsis_gcc.h **** 
1587:Drivers/CMSIS/Include/cmsis_gcc.h **** __STATIC_FORCEINLINE uint32_t __SSUB8(uint32_t op1, uint32_t op2)
1588:Drivers/CMSIS/Include/cmsis_gcc.h **** {
1589:Drivers/CMSIS/Include/cmsis_gcc.h ****   uint32_t result;
1590:Drivers/CMSIS/Include/cmsis_gcc.h **** 
1591:Drivers/CMSIS/Include/cmsis_gcc.h ****   __ASM volatile ("ssub8 %0, %1, %2" : "=r" (result) : "r" (op1), "r" (op2) );
1592:Drivers/CMSIS/Include/cmsis_gcc.h ****   return(result);
1593:Drivers/CMSIS/Include/cmsis_gcc.h **** }
1594:Drivers/CMSIS/Include/cmsis_gcc.h **** 
1595:Drivers/CMSIS/Include/cmsis_gcc.h **** __STATIC_FORCEINLINE uint32_t __QSUB8(uint32_t op1, uint32_t op2)
1596:Drivers/CMSIS/Include/cmsis_gcc.h **** {
1597:Drivers/CMSIS/Include/cmsis_gcc.h ****   uint32_t result;
1598:Drivers/CMSIS/Include/cmsis_gcc.h **** 
1599:Drivers/CMSIS/Include/cmsis_gcc.h ****   __ASM volatile ("qsub8 %0, %1, %2" : "=r" (result) : "r" (op1), "r" (op2) );
1600:Drivers/CMSIS/Include/cmsis_gcc.h ****   return(result);
1601:Drivers/CMSIS/Include/cmsis_gcc.h **** }
1602:Drivers/CMSIS/Include/cmsis_gcc.h **** 
1603:Drivers/CMSIS/Include/cmsis_gcc.h **** __STATIC_FORCEINLINE uint32_t __SHSUB8(uint32_t op1, uint32_t op2)
1604:Drivers/CMSIS/Include/cmsis_gcc.h **** {
1605:Drivers/CMSIS/Include/cmsis_gcc.h ****   uint32_t result;
1606:Drivers/CMSIS/Include/cmsis_gcc.h **** 
1607:Drivers/CMSIS/Include/cmsis_gcc.h ****   __ASM volatile ("shsub8 %0, %1, %2" : "=r" (result) : "r" (op1), "r" (op2) );
1608:Drivers/CMSIS/Include/cmsis_gcc.h ****   return(result);
1609:Drivers/CMSIS/Include/cmsis_gcc.h **** }
1610:Drivers/CMSIS/Include/cmsis_gcc.h **** 
1611:Drivers/CMSIS/Include/cmsis_gcc.h **** __STATIC_FORCEINLINE uint32_t __USUB8(uint32_t op1, uint32_t op2)
1612:Drivers/CMSIS/Include/cmsis_gcc.h **** {
ARM GAS  C:\Users\ACER\AppData\Local\Temp\cclMZ9Th.s 			page 36


1613:Drivers/CMSIS/Include/cmsis_gcc.h ****   uint32_t result;
1614:Drivers/CMSIS/Include/cmsis_gcc.h **** 
1615:Drivers/CMSIS/Include/cmsis_gcc.h ****   __ASM volatile ("usub8 %0, %1, %2" : "=r" (result) : "r" (op1), "r" (op2) );
1616:Drivers/CMSIS/Include/cmsis_gcc.h ****   return(result);
1617:Drivers/CMSIS/Include/cmsis_gcc.h **** }
1618:Drivers/CMSIS/Include/cmsis_gcc.h **** 
1619:Drivers/CMSIS/Include/cmsis_gcc.h **** __STATIC_FORCEINLINE uint32_t __UQSUB8(uint32_t op1, uint32_t op2)
1620:Drivers/CMSIS/Include/cmsis_gcc.h **** {
1621:Drivers/CMSIS/Include/cmsis_gcc.h ****   uint32_t result;
1622:Drivers/CMSIS/Include/cmsis_gcc.h **** 
1623:Drivers/CMSIS/Include/cmsis_gcc.h ****   __ASM volatile ("uqsub8 %0, %1, %2" : "=r" (result) : "r" (op1), "r" (op2) );
1624:Drivers/CMSIS/Include/cmsis_gcc.h ****   return(result);
1625:Drivers/CMSIS/Include/cmsis_gcc.h **** }
1626:Drivers/CMSIS/Include/cmsis_gcc.h **** 
1627:Drivers/CMSIS/Include/cmsis_gcc.h **** __STATIC_FORCEINLINE uint32_t __UHSUB8(uint32_t op1, uint32_t op2)
1628:Drivers/CMSIS/Include/cmsis_gcc.h **** {
1629:Drivers/CMSIS/Include/cmsis_gcc.h ****   uint32_t result;
1630:Drivers/CMSIS/Include/cmsis_gcc.h **** 
1631:Drivers/CMSIS/Include/cmsis_gcc.h ****   __ASM volatile ("uhsub8 %0, %1, %2" : "=r" (result) : "r" (op1), "r" (op2) );
1632:Drivers/CMSIS/Include/cmsis_gcc.h ****   return(result);
1633:Drivers/CMSIS/Include/cmsis_gcc.h **** }
1634:Drivers/CMSIS/Include/cmsis_gcc.h **** 
1635:Drivers/CMSIS/Include/cmsis_gcc.h **** 
1636:Drivers/CMSIS/Include/cmsis_gcc.h **** __STATIC_FORCEINLINE uint32_t __SADD16(uint32_t op1, uint32_t op2)
1637:Drivers/CMSIS/Include/cmsis_gcc.h **** {
1638:Drivers/CMSIS/Include/cmsis_gcc.h ****   uint32_t result;
1639:Drivers/CMSIS/Include/cmsis_gcc.h **** 
1640:Drivers/CMSIS/Include/cmsis_gcc.h ****   __ASM volatile ("sadd16 %0, %1, %2" : "=r" (result) : "r" (op1), "r" (op2) );
1641:Drivers/CMSIS/Include/cmsis_gcc.h ****   return(result);
1642:Drivers/CMSIS/Include/cmsis_gcc.h **** }
1643:Drivers/CMSIS/Include/cmsis_gcc.h **** 
1644:Drivers/CMSIS/Include/cmsis_gcc.h **** __STATIC_FORCEINLINE uint32_t __QADD16(uint32_t op1, uint32_t op2)
1645:Drivers/CMSIS/Include/cmsis_gcc.h **** {
1646:Drivers/CMSIS/Include/cmsis_gcc.h ****   uint32_t result;
1647:Drivers/CMSIS/Include/cmsis_gcc.h **** 
1648:Drivers/CMSIS/Include/cmsis_gcc.h ****   __ASM volatile ("qadd16 %0, %1, %2" : "=r" (result) : "r" (op1), "r" (op2) );
1649:Drivers/CMSIS/Include/cmsis_gcc.h ****   return(result);
1650:Drivers/CMSIS/Include/cmsis_gcc.h **** }
1651:Drivers/CMSIS/Include/cmsis_gcc.h **** 
1652:Drivers/CMSIS/Include/cmsis_gcc.h **** __STATIC_FORCEINLINE uint32_t __SHADD16(uint32_t op1, uint32_t op2)
1653:Drivers/CMSIS/Include/cmsis_gcc.h **** {
1654:Drivers/CMSIS/Include/cmsis_gcc.h ****   uint32_t result;
1655:Drivers/CMSIS/Include/cmsis_gcc.h **** 
1656:Drivers/CMSIS/Include/cmsis_gcc.h ****   __ASM volatile ("shadd16 %0, %1, %2" : "=r" (result) : "r" (op1), "r" (op2) );
1657:Drivers/CMSIS/Include/cmsis_gcc.h ****   return(result);
1658:Drivers/CMSIS/Include/cmsis_gcc.h **** }
1659:Drivers/CMSIS/Include/cmsis_gcc.h **** 
1660:Drivers/CMSIS/Include/cmsis_gcc.h **** __STATIC_FORCEINLINE uint32_t __UADD16(uint32_t op1, uint32_t op2)
1661:Drivers/CMSIS/Include/cmsis_gcc.h **** {
1662:Drivers/CMSIS/Include/cmsis_gcc.h ****   uint32_t result;
1663:Drivers/CMSIS/Include/cmsis_gcc.h **** 
1664:Drivers/CMSIS/Include/cmsis_gcc.h ****   __ASM volatile ("uadd16 %0, %1, %2" : "=r" (result) : "r" (op1), "r" (op2) );
1665:Drivers/CMSIS/Include/cmsis_gcc.h ****   return(result);
1666:Drivers/CMSIS/Include/cmsis_gcc.h **** }
1667:Drivers/CMSIS/Include/cmsis_gcc.h **** 
1668:Drivers/CMSIS/Include/cmsis_gcc.h **** __STATIC_FORCEINLINE uint32_t __UQADD16(uint32_t op1, uint32_t op2)
1669:Drivers/CMSIS/Include/cmsis_gcc.h **** {
ARM GAS  C:\Users\ACER\AppData\Local\Temp\cclMZ9Th.s 			page 37


1670:Drivers/CMSIS/Include/cmsis_gcc.h ****   uint32_t result;
1671:Drivers/CMSIS/Include/cmsis_gcc.h **** 
1672:Drivers/CMSIS/Include/cmsis_gcc.h ****   __ASM volatile ("uqadd16 %0, %1, %2" : "=r" (result) : "r" (op1), "r" (op2) );
1673:Drivers/CMSIS/Include/cmsis_gcc.h ****   return(result);
1674:Drivers/CMSIS/Include/cmsis_gcc.h **** }
1675:Drivers/CMSIS/Include/cmsis_gcc.h **** 
1676:Drivers/CMSIS/Include/cmsis_gcc.h **** __STATIC_FORCEINLINE uint32_t __UHADD16(uint32_t op1, uint32_t op2)
1677:Drivers/CMSIS/Include/cmsis_gcc.h **** {
1678:Drivers/CMSIS/Include/cmsis_gcc.h ****   uint32_t result;
1679:Drivers/CMSIS/Include/cmsis_gcc.h **** 
1680:Drivers/CMSIS/Include/cmsis_gcc.h ****   __ASM volatile ("uhadd16 %0, %1, %2" : "=r" (result) : "r" (op1), "r" (op2) );
1681:Drivers/CMSIS/Include/cmsis_gcc.h ****   return(result);
1682:Drivers/CMSIS/Include/cmsis_gcc.h **** }
1683:Drivers/CMSIS/Include/cmsis_gcc.h **** 
1684:Drivers/CMSIS/Include/cmsis_gcc.h **** __STATIC_FORCEINLINE uint32_t __SSUB16(uint32_t op1, uint32_t op2)
1685:Drivers/CMSIS/Include/cmsis_gcc.h **** {
1686:Drivers/CMSIS/Include/cmsis_gcc.h ****   uint32_t result;
1687:Drivers/CMSIS/Include/cmsis_gcc.h **** 
1688:Drivers/CMSIS/Include/cmsis_gcc.h ****   __ASM volatile ("ssub16 %0, %1, %2" : "=r" (result) : "r" (op1), "r" (op2) );
1689:Drivers/CMSIS/Include/cmsis_gcc.h ****   return(result);
1690:Drivers/CMSIS/Include/cmsis_gcc.h **** }
1691:Drivers/CMSIS/Include/cmsis_gcc.h **** 
1692:Drivers/CMSIS/Include/cmsis_gcc.h **** __STATIC_FORCEINLINE uint32_t __QSUB16(uint32_t op1, uint32_t op2)
1693:Drivers/CMSIS/Include/cmsis_gcc.h **** {
1694:Drivers/CMSIS/Include/cmsis_gcc.h ****   uint32_t result;
1695:Drivers/CMSIS/Include/cmsis_gcc.h **** 
1696:Drivers/CMSIS/Include/cmsis_gcc.h ****   __ASM volatile ("qsub16 %0, %1, %2" : "=r" (result) : "r" (op1), "r" (op2) );
1697:Drivers/CMSIS/Include/cmsis_gcc.h ****   return(result);
1698:Drivers/CMSIS/Include/cmsis_gcc.h **** }
1699:Drivers/CMSIS/Include/cmsis_gcc.h **** 
1700:Drivers/CMSIS/Include/cmsis_gcc.h **** __STATIC_FORCEINLINE uint32_t __SHSUB16(uint32_t op1, uint32_t op2)
1701:Drivers/CMSIS/Include/cmsis_gcc.h **** {
1702:Drivers/CMSIS/Include/cmsis_gcc.h ****   uint32_t result;
1703:Drivers/CMSIS/Include/cmsis_gcc.h **** 
1704:Drivers/CMSIS/Include/cmsis_gcc.h ****   __ASM volatile ("shsub16 %0, %1, %2" : "=r" (result) : "r" (op1), "r" (op2) );
1705:Drivers/CMSIS/Include/cmsis_gcc.h ****   return(result);
1706:Drivers/CMSIS/Include/cmsis_gcc.h **** }
1707:Drivers/CMSIS/Include/cmsis_gcc.h **** 
1708:Drivers/CMSIS/Include/cmsis_gcc.h **** __STATIC_FORCEINLINE uint32_t __USUB16(uint32_t op1, uint32_t op2)
1709:Drivers/CMSIS/Include/cmsis_gcc.h **** {
1710:Drivers/CMSIS/Include/cmsis_gcc.h ****   uint32_t result;
1711:Drivers/CMSIS/Include/cmsis_gcc.h **** 
1712:Drivers/CMSIS/Include/cmsis_gcc.h ****   __ASM volatile ("usub16 %0, %1, %2" : "=r" (result) : "r" (op1), "r" (op2) );
1713:Drivers/CMSIS/Include/cmsis_gcc.h ****   return(result);
1714:Drivers/CMSIS/Include/cmsis_gcc.h **** }
1715:Drivers/CMSIS/Include/cmsis_gcc.h **** 
1716:Drivers/CMSIS/Include/cmsis_gcc.h **** __STATIC_FORCEINLINE uint32_t __UQSUB16(uint32_t op1, uint32_t op2)
1717:Drivers/CMSIS/Include/cmsis_gcc.h **** {
1718:Drivers/CMSIS/Include/cmsis_gcc.h ****   uint32_t result;
1719:Drivers/CMSIS/Include/cmsis_gcc.h **** 
1720:Drivers/CMSIS/Include/cmsis_gcc.h ****   __ASM volatile ("uqsub16 %0, %1, %2" : "=r" (result) : "r" (op1), "r" (op2) );
1721:Drivers/CMSIS/Include/cmsis_gcc.h ****   return(result);
1722:Drivers/CMSIS/Include/cmsis_gcc.h **** }
1723:Drivers/CMSIS/Include/cmsis_gcc.h **** 
1724:Drivers/CMSIS/Include/cmsis_gcc.h **** __STATIC_FORCEINLINE uint32_t __UHSUB16(uint32_t op1, uint32_t op2)
1725:Drivers/CMSIS/Include/cmsis_gcc.h **** {
1726:Drivers/CMSIS/Include/cmsis_gcc.h ****   uint32_t result;
ARM GAS  C:\Users\ACER\AppData\Local\Temp\cclMZ9Th.s 			page 38


1727:Drivers/CMSIS/Include/cmsis_gcc.h **** 
1728:Drivers/CMSIS/Include/cmsis_gcc.h ****   __ASM volatile ("uhsub16 %0, %1, %2" : "=r" (result) : "r" (op1), "r" (op2) );
1729:Drivers/CMSIS/Include/cmsis_gcc.h ****   return(result);
1730:Drivers/CMSIS/Include/cmsis_gcc.h **** }
1731:Drivers/CMSIS/Include/cmsis_gcc.h **** 
1732:Drivers/CMSIS/Include/cmsis_gcc.h **** __STATIC_FORCEINLINE uint32_t __SASX(uint32_t op1, uint32_t op2)
1733:Drivers/CMSIS/Include/cmsis_gcc.h **** {
1734:Drivers/CMSIS/Include/cmsis_gcc.h ****   uint32_t result;
1735:Drivers/CMSIS/Include/cmsis_gcc.h **** 
1736:Drivers/CMSIS/Include/cmsis_gcc.h ****   __ASM volatile ("sasx %0, %1, %2" : "=r" (result) : "r" (op1), "r" (op2) );
1737:Drivers/CMSIS/Include/cmsis_gcc.h ****   return(result);
1738:Drivers/CMSIS/Include/cmsis_gcc.h **** }
1739:Drivers/CMSIS/Include/cmsis_gcc.h **** 
1740:Drivers/CMSIS/Include/cmsis_gcc.h **** __STATIC_FORCEINLINE uint32_t __QASX(uint32_t op1, uint32_t op2)
1741:Drivers/CMSIS/Include/cmsis_gcc.h **** {
1742:Drivers/CMSIS/Include/cmsis_gcc.h ****   uint32_t result;
1743:Drivers/CMSIS/Include/cmsis_gcc.h **** 
1744:Drivers/CMSIS/Include/cmsis_gcc.h ****   __ASM volatile ("qasx %0, %1, %2" : "=r" (result) : "r" (op1), "r" (op2) );
1745:Drivers/CMSIS/Include/cmsis_gcc.h ****   return(result);
1746:Drivers/CMSIS/Include/cmsis_gcc.h **** }
1747:Drivers/CMSIS/Include/cmsis_gcc.h **** 
1748:Drivers/CMSIS/Include/cmsis_gcc.h **** __STATIC_FORCEINLINE uint32_t __SHASX(uint32_t op1, uint32_t op2)
1749:Drivers/CMSIS/Include/cmsis_gcc.h **** {
1750:Drivers/CMSIS/Include/cmsis_gcc.h ****   uint32_t result;
1751:Drivers/CMSIS/Include/cmsis_gcc.h **** 
1752:Drivers/CMSIS/Include/cmsis_gcc.h ****   __ASM volatile ("shasx %0, %1, %2" : "=r" (result) : "r" (op1), "r" (op2) );
1753:Drivers/CMSIS/Include/cmsis_gcc.h ****   return(result);
1754:Drivers/CMSIS/Include/cmsis_gcc.h **** }
1755:Drivers/CMSIS/Include/cmsis_gcc.h **** 
1756:Drivers/CMSIS/Include/cmsis_gcc.h **** __STATIC_FORCEINLINE uint32_t __UASX(uint32_t op1, uint32_t op2)
1757:Drivers/CMSIS/Include/cmsis_gcc.h **** {
1758:Drivers/CMSIS/Include/cmsis_gcc.h ****   uint32_t result;
1759:Drivers/CMSIS/Include/cmsis_gcc.h **** 
1760:Drivers/CMSIS/Include/cmsis_gcc.h ****   __ASM volatile ("uasx %0, %1, %2" : "=r" (result) : "r" (op1), "r" (op2) );
1761:Drivers/CMSIS/Include/cmsis_gcc.h ****   return(result);
1762:Drivers/CMSIS/Include/cmsis_gcc.h **** }
1763:Drivers/CMSIS/Include/cmsis_gcc.h **** 
1764:Drivers/CMSIS/Include/cmsis_gcc.h **** __STATIC_FORCEINLINE uint32_t __UQASX(uint32_t op1, uint32_t op2)
1765:Drivers/CMSIS/Include/cmsis_gcc.h **** {
1766:Drivers/CMSIS/Include/cmsis_gcc.h ****   uint32_t result;
1767:Drivers/CMSIS/Include/cmsis_gcc.h **** 
1768:Drivers/CMSIS/Include/cmsis_gcc.h ****   __ASM volatile ("uqasx %0, %1, %2" : "=r" (result) : "r" (op1), "r" (op2) );
1769:Drivers/CMSIS/Include/cmsis_gcc.h ****   return(result);
1770:Drivers/CMSIS/Include/cmsis_gcc.h **** }
1771:Drivers/CMSIS/Include/cmsis_gcc.h **** 
1772:Drivers/CMSIS/Include/cmsis_gcc.h **** __STATIC_FORCEINLINE uint32_t __UHASX(uint32_t op1, uint32_t op2)
1773:Drivers/CMSIS/Include/cmsis_gcc.h **** {
1774:Drivers/CMSIS/Include/cmsis_gcc.h ****   uint32_t result;
1775:Drivers/CMSIS/Include/cmsis_gcc.h **** 
1776:Drivers/CMSIS/Include/cmsis_gcc.h ****   __ASM volatile ("uhasx %0, %1, %2" : "=r" (result) : "r" (op1), "r" (op2) );
1777:Drivers/CMSIS/Include/cmsis_gcc.h ****   return(result);
1778:Drivers/CMSIS/Include/cmsis_gcc.h **** }
1779:Drivers/CMSIS/Include/cmsis_gcc.h **** 
1780:Drivers/CMSIS/Include/cmsis_gcc.h **** __STATIC_FORCEINLINE uint32_t __SSAX(uint32_t op1, uint32_t op2)
1781:Drivers/CMSIS/Include/cmsis_gcc.h **** {
1782:Drivers/CMSIS/Include/cmsis_gcc.h ****   uint32_t result;
1783:Drivers/CMSIS/Include/cmsis_gcc.h **** 
ARM GAS  C:\Users\ACER\AppData\Local\Temp\cclMZ9Th.s 			page 39


1784:Drivers/CMSIS/Include/cmsis_gcc.h ****   __ASM volatile ("ssax %0, %1, %2" : "=r" (result) : "r" (op1), "r" (op2) );
1785:Drivers/CMSIS/Include/cmsis_gcc.h ****   return(result);
1786:Drivers/CMSIS/Include/cmsis_gcc.h **** }
1787:Drivers/CMSIS/Include/cmsis_gcc.h **** 
1788:Drivers/CMSIS/Include/cmsis_gcc.h **** __STATIC_FORCEINLINE uint32_t __QSAX(uint32_t op1, uint32_t op2)
1789:Drivers/CMSIS/Include/cmsis_gcc.h **** {
1790:Drivers/CMSIS/Include/cmsis_gcc.h ****   uint32_t result;
1791:Drivers/CMSIS/Include/cmsis_gcc.h **** 
1792:Drivers/CMSIS/Include/cmsis_gcc.h ****   __ASM volatile ("qsax %0, %1, %2" : "=r" (result) : "r" (op1), "r" (op2) );
1793:Drivers/CMSIS/Include/cmsis_gcc.h ****   return(result);
1794:Drivers/CMSIS/Include/cmsis_gcc.h **** }
1795:Drivers/CMSIS/Include/cmsis_gcc.h **** 
1796:Drivers/CMSIS/Include/cmsis_gcc.h **** __STATIC_FORCEINLINE uint32_t __SHSAX(uint32_t op1, uint32_t op2)
1797:Drivers/CMSIS/Include/cmsis_gcc.h **** {
1798:Drivers/CMSIS/Include/cmsis_gcc.h ****   uint32_t result;
1799:Drivers/CMSIS/Include/cmsis_gcc.h **** 
1800:Drivers/CMSIS/Include/cmsis_gcc.h ****   __ASM volatile ("shsax %0, %1, %2" : "=r" (result) : "r" (op1), "r" (op2) );
1801:Drivers/CMSIS/Include/cmsis_gcc.h ****   return(result);
1802:Drivers/CMSIS/Include/cmsis_gcc.h **** }
1803:Drivers/CMSIS/Include/cmsis_gcc.h **** 
1804:Drivers/CMSIS/Include/cmsis_gcc.h **** __STATIC_FORCEINLINE uint32_t __USAX(uint32_t op1, uint32_t op2)
1805:Drivers/CMSIS/Include/cmsis_gcc.h **** {
1806:Drivers/CMSIS/Include/cmsis_gcc.h ****   uint32_t result;
1807:Drivers/CMSIS/Include/cmsis_gcc.h **** 
1808:Drivers/CMSIS/Include/cmsis_gcc.h ****   __ASM volatile ("usax %0, %1, %2" : "=r" (result) : "r" (op1), "r" (op2) );
1809:Drivers/CMSIS/Include/cmsis_gcc.h ****   return(result);
1810:Drivers/CMSIS/Include/cmsis_gcc.h **** }
1811:Drivers/CMSIS/Include/cmsis_gcc.h **** 
1812:Drivers/CMSIS/Include/cmsis_gcc.h **** __STATIC_FORCEINLINE uint32_t __UQSAX(uint32_t op1, uint32_t op2)
1813:Drivers/CMSIS/Include/cmsis_gcc.h **** {
1814:Drivers/CMSIS/Include/cmsis_gcc.h ****   uint32_t result;
1815:Drivers/CMSIS/Include/cmsis_gcc.h **** 
1816:Drivers/CMSIS/Include/cmsis_gcc.h ****   __ASM volatile ("uqsax %0, %1, %2" : "=r" (result) : "r" (op1), "r" (op2) );
1817:Drivers/CMSIS/Include/cmsis_gcc.h ****   return(result);
1818:Drivers/CMSIS/Include/cmsis_gcc.h **** }
1819:Drivers/CMSIS/Include/cmsis_gcc.h **** 
1820:Drivers/CMSIS/Include/cmsis_gcc.h **** __STATIC_FORCEINLINE uint32_t __UHSAX(uint32_t op1, uint32_t op2)
1821:Drivers/CMSIS/Include/cmsis_gcc.h **** {
1822:Drivers/CMSIS/Include/cmsis_gcc.h ****   uint32_t result;
1823:Drivers/CMSIS/Include/cmsis_gcc.h **** 
1824:Drivers/CMSIS/Include/cmsis_gcc.h ****   __ASM volatile ("uhsax %0, %1, %2" : "=r" (result) : "r" (op1), "r" (op2) );
1825:Drivers/CMSIS/Include/cmsis_gcc.h ****   return(result);
1826:Drivers/CMSIS/Include/cmsis_gcc.h **** }
1827:Drivers/CMSIS/Include/cmsis_gcc.h **** 
1828:Drivers/CMSIS/Include/cmsis_gcc.h **** __STATIC_FORCEINLINE uint32_t __USAD8(uint32_t op1, uint32_t op2)
1829:Drivers/CMSIS/Include/cmsis_gcc.h **** {
1830:Drivers/CMSIS/Include/cmsis_gcc.h ****   uint32_t result;
1831:Drivers/CMSIS/Include/cmsis_gcc.h **** 
1832:Drivers/CMSIS/Include/cmsis_gcc.h ****   __ASM volatile ("usad8 %0, %1, %2" : "=r" (result) : "r" (op1), "r" (op2) );
1833:Drivers/CMSIS/Include/cmsis_gcc.h ****   return(result);
1834:Drivers/CMSIS/Include/cmsis_gcc.h **** }
1835:Drivers/CMSIS/Include/cmsis_gcc.h **** 
1836:Drivers/CMSIS/Include/cmsis_gcc.h **** __STATIC_FORCEINLINE uint32_t __USADA8(uint32_t op1, uint32_t op2, uint32_t op3)
1837:Drivers/CMSIS/Include/cmsis_gcc.h **** {
1838:Drivers/CMSIS/Include/cmsis_gcc.h ****   uint32_t result;
1839:Drivers/CMSIS/Include/cmsis_gcc.h **** 
1840:Drivers/CMSIS/Include/cmsis_gcc.h ****   __ASM volatile ("usada8 %0, %1, %2, %3" : "=r" (result) : "r" (op1), "r" (op2), "r" (op3) );
ARM GAS  C:\Users\ACER\AppData\Local\Temp\cclMZ9Th.s 			page 40


1841:Drivers/CMSIS/Include/cmsis_gcc.h ****   return(result);
1842:Drivers/CMSIS/Include/cmsis_gcc.h **** }
1843:Drivers/CMSIS/Include/cmsis_gcc.h **** 
1844:Drivers/CMSIS/Include/cmsis_gcc.h **** #define __SSAT16(ARG1,ARG2) \
1845:Drivers/CMSIS/Include/cmsis_gcc.h **** ({                          \
1846:Drivers/CMSIS/Include/cmsis_gcc.h ****   int32_t __RES, __ARG1 = (ARG1); \
1847:Drivers/CMSIS/Include/cmsis_gcc.h ****   __ASM ("ssat16 %0, %1, %2" : "=r" (__RES) :  "I" (ARG2), "r" (__ARG1) ); \
1848:Drivers/CMSIS/Include/cmsis_gcc.h ****   __RES; \
1849:Drivers/CMSIS/Include/cmsis_gcc.h ****  })
1850:Drivers/CMSIS/Include/cmsis_gcc.h **** 
1851:Drivers/CMSIS/Include/cmsis_gcc.h **** #define __USAT16(ARG1,ARG2) \
1852:Drivers/CMSIS/Include/cmsis_gcc.h **** ({                          \
1853:Drivers/CMSIS/Include/cmsis_gcc.h ****   uint32_t __RES, __ARG1 = (ARG1); \
1854:Drivers/CMSIS/Include/cmsis_gcc.h ****   __ASM ("usat16 %0, %1, %2" : "=r" (__RES) :  "I" (ARG2), "r" (__ARG1) ); \
1855:Drivers/CMSIS/Include/cmsis_gcc.h ****   __RES; \
1856:Drivers/CMSIS/Include/cmsis_gcc.h ****  })
1857:Drivers/CMSIS/Include/cmsis_gcc.h **** 
1858:Drivers/CMSIS/Include/cmsis_gcc.h **** __STATIC_FORCEINLINE uint32_t __UXTB16(uint32_t op1)
1859:Drivers/CMSIS/Include/cmsis_gcc.h **** {
1860:Drivers/CMSIS/Include/cmsis_gcc.h ****   uint32_t result;
1861:Drivers/CMSIS/Include/cmsis_gcc.h **** 
1862:Drivers/CMSIS/Include/cmsis_gcc.h ****   __ASM volatile ("uxtb16 %0, %1" : "=r" (result) : "r" (op1));
1863:Drivers/CMSIS/Include/cmsis_gcc.h ****   return(result);
1864:Drivers/CMSIS/Include/cmsis_gcc.h **** }
1865:Drivers/CMSIS/Include/cmsis_gcc.h **** 
1866:Drivers/CMSIS/Include/cmsis_gcc.h **** __STATIC_FORCEINLINE uint32_t __UXTAB16(uint32_t op1, uint32_t op2)
1867:Drivers/CMSIS/Include/cmsis_gcc.h **** {
1868:Drivers/CMSIS/Include/cmsis_gcc.h ****   uint32_t result;
1869:Drivers/CMSIS/Include/cmsis_gcc.h **** 
1870:Drivers/CMSIS/Include/cmsis_gcc.h ****   __ASM volatile ("uxtab16 %0, %1, %2" : "=r" (result) : "r" (op1), "r" (op2) );
1871:Drivers/CMSIS/Include/cmsis_gcc.h ****   return(result);
1872:Drivers/CMSIS/Include/cmsis_gcc.h **** }
1873:Drivers/CMSIS/Include/cmsis_gcc.h **** 
1874:Drivers/CMSIS/Include/cmsis_gcc.h **** __STATIC_FORCEINLINE uint32_t __SXTB16(uint32_t op1)
1875:Drivers/CMSIS/Include/cmsis_gcc.h **** {
1876:Drivers/CMSIS/Include/cmsis_gcc.h ****   uint32_t result;
1877:Drivers/CMSIS/Include/cmsis_gcc.h **** 
1878:Drivers/CMSIS/Include/cmsis_gcc.h ****   __ASM volatile ("sxtb16 %0, %1" : "=r" (result) : "r" (op1));
1879:Drivers/CMSIS/Include/cmsis_gcc.h ****   return(result);
1880:Drivers/CMSIS/Include/cmsis_gcc.h **** }
1881:Drivers/CMSIS/Include/cmsis_gcc.h **** 
1882:Drivers/CMSIS/Include/cmsis_gcc.h **** __STATIC_FORCEINLINE uint32_t __SXTAB16(uint32_t op1, uint32_t op2)
1883:Drivers/CMSIS/Include/cmsis_gcc.h **** {
1884:Drivers/CMSIS/Include/cmsis_gcc.h ****   uint32_t result;
1885:Drivers/CMSIS/Include/cmsis_gcc.h **** 
1886:Drivers/CMSIS/Include/cmsis_gcc.h ****   __ASM volatile ("sxtab16 %0, %1, %2" : "=r" (result) : "r" (op1), "r" (op2) );
1887:Drivers/CMSIS/Include/cmsis_gcc.h ****   return(result);
1888:Drivers/CMSIS/Include/cmsis_gcc.h **** }
1889:Drivers/CMSIS/Include/cmsis_gcc.h **** 
1890:Drivers/CMSIS/Include/cmsis_gcc.h **** __STATIC_FORCEINLINE uint32_t __SMUAD  (uint32_t op1, uint32_t op2)
1891:Drivers/CMSIS/Include/cmsis_gcc.h **** {
1892:Drivers/CMSIS/Include/cmsis_gcc.h ****   uint32_t result;
1893:Drivers/CMSIS/Include/cmsis_gcc.h **** 
1894:Drivers/CMSIS/Include/cmsis_gcc.h ****   __ASM volatile ("smuad %0, %1, %2" : "=r" (result) : "r" (op1), "r" (op2) );
1895:Drivers/CMSIS/Include/cmsis_gcc.h ****   return(result);
1896:Drivers/CMSIS/Include/cmsis_gcc.h **** }
1897:Drivers/CMSIS/Include/cmsis_gcc.h **** 
ARM GAS  C:\Users\ACER\AppData\Local\Temp\cclMZ9Th.s 			page 41


1898:Drivers/CMSIS/Include/cmsis_gcc.h **** __STATIC_FORCEINLINE uint32_t __SMUADX (uint32_t op1, uint32_t op2)
1899:Drivers/CMSIS/Include/cmsis_gcc.h **** {
1900:Drivers/CMSIS/Include/cmsis_gcc.h ****   uint32_t result;
1901:Drivers/CMSIS/Include/cmsis_gcc.h **** 
1902:Drivers/CMSIS/Include/cmsis_gcc.h ****   __ASM volatile ("smuadx %0, %1, %2" : "=r" (result) : "r" (op1), "r" (op2) );
1903:Drivers/CMSIS/Include/cmsis_gcc.h ****   return(result);
1904:Drivers/CMSIS/Include/cmsis_gcc.h **** }
1905:Drivers/CMSIS/Include/cmsis_gcc.h **** 
1906:Drivers/CMSIS/Include/cmsis_gcc.h **** __STATIC_FORCEINLINE uint32_t __SMLAD (uint32_t op1, uint32_t op2, uint32_t op3)
 198              		.loc 2 1906 31 is_stmt 1 view .LVU64
 199              	.LBB67:
1907:Drivers/CMSIS/Include/cmsis_gcc.h **** {
1908:Drivers/CMSIS/Include/cmsis_gcc.h ****   uint32_t result;
 200              		.loc 2 1908 3 view .LVU65
1909:Drivers/CMSIS/Include/cmsis_gcc.h **** 
1910:Drivers/CMSIS/Include/cmsis_gcc.h ****   __ASM volatile ("smlad %0, %1, %2, %3" : "=r" (result) : "r" (op1), "r" (op2), "r" (op3) );
 201              		.loc 2 1910 3 view .LVU66
 202              		.syntax unified
 203              	@ 1910 "Drivers/CMSIS/Include/cmsis_gcc.h" 1
 204 008a 2AFB0B33 		smlad r3, r10, fp, r3
 205              	@ 0 "" 2
 206              	.LVL24:
1911:Drivers/CMSIS/Include/cmsis_gcc.h ****   return(result);
 207              		.loc 2 1911 3 view .LVU67
 208              		.loc 2 1911 3 is_stmt 0 view .LVU68
 209              		.thumb
 210              		.syntax unified
 211              	.LBE67:
 212              	.LBE66:
 182:Drivers/CMSIS/DSP/Source/FilteringFunctions/arm_conv_partial_fast_q15.c **** 
 183:Drivers/CMSIS/DSP/Source/FilteringFunctions/arm_conv_partial_fast_q15.c ****         /* Decrement the loop counter */
 184:Drivers/CMSIS/DSP/Source/FilteringFunctions/arm_conv_partial_fast_q15.c ****         k--;
 213              		.loc 1 184 9 is_stmt 1 view .LVU69
 214              		.loc 1 184 10 is_stmt 0 view .LVU70
 215 008e 013E     		subs	r6, r6, #1
 216              	.LVL25:
 217              	.L10:
 178:Drivers/CMSIS/DSP/Source/FilteringFunctions/arm_conv_partial_fast_q15.c ****       {
 218              		.loc 1 178 16 is_stmt 1 view .LVU71
 219 0090 002E     		cmp	r6, #0
 220 0092 F6D1     		bne	.L8
 185:Drivers/CMSIS/DSP/Source/FilteringFunctions/arm_conv_partial_fast_q15.c ****       }
 186:Drivers/CMSIS/DSP/Source/FilteringFunctions/arm_conv_partial_fast_q15.c **** 
 187:Drivers/CMSIS/DSP/Source/FilteringFunctions/arm_conv_partial_fast_q15.c ****       /* Store the result in the accumulator in the destination buffer. */
 188:Drivers/CMSIS/DSP/Source/FilteringFunctions/arm_conv_partial_fast_q15.c ****       *pOut++ = (q15_t) (sum >> 15);
 221              		.loc 1 188 7 view .LVU72
 222              		.loc 1 188 12 is_stmt 0 view .LVU73
 223 0094 019A     		ldr	r2, [sp, #4]
 224              	.LVL26:
 225              		.loc 1 188 17 view .LVU74
 226 0096 43F3CF33 		sbfx	r3, r3, #15, #16
 227              	.LVL27:
 228              		.loc 1 188 15 view .LVU75
 229 009a 22F8023B 		strh	r3, [r2], #2	@ movhi
 230              	.LVL28:
 189:Drivers/CMSIS/DSP/Source/FilteringFunctions/arm_conv_partial_fast_q15.c **** 
 190:Drivers/CMSIS/DSP/Source/FilteringFunctions/arm_conv_partial_fast_q15.c ****       /* Update the inputA and inputB pointers for next MAC calculation */
ARM GAS  C:\Users\ACER\AppData\Local\Temp\cclMZ9Th.s 			page 42


 191:Drivers/CMSIS/DSP/Source/FilteringFunctions/arm_conv_partial_fast_q15.c ****       py = ++pSrc2;
 231              		.loc 1 191 7 is_stmt 1 view .LVU76
 232              		.loc 1 191 10 is_stmt 0 view .LVU77
 233 009e 0EF1020E 		add	lr, lr, #2
 234              	.LVL29:
 192:Drivers/CMSIS/DSP/Source/FilteringFunctions/arm_conv_partial_fast_q15.c ****       px = pIn1;
 235              		.loc 1 192 7 is_stmt 1 view .LVU78
 193:Drivers/CMSIS/DSP/Source/FilteringFunctions/arm_conv_partial_fast_q15.c **** 
 194:Drivers/CMSIS/DSP/Source/FilteringFunctions/arm_conv_partial_fast_q15.c ****       /* Increment the MAC count */
 195:Drivers/CMSIS/DSP/Source/FilteringFunctions/arm_conv_partial_fast_q15.c ****       count++;
 236              		.loc 1 195 7 view .LVU79
 237              		.loc 1 195 12 is_stmt 0 view .LVU80
 238 00a2 0134     		adds	r4, r4, #1
 239              	.LVL30:
 196:Drivers/CMSIS/DSP/Source/FilteringFunctions/arm_conv_partial_fast_q15.c **** 
 197:Drivers/CMSIS/DSP/Source/FilteringFunctions/arm_conv_partial_fast_q15.c ****       /* Decrement the loop counter */
 198:Drivers/CMSIS/DSP/Source/FilteringFunctions/arm_conv_partial_fast_q15.c ****       blockSize1--;
 240              		.loc 1 198 7 is_stmt 1 view .LVU81
 241              		.loc 1 198 17 is_stmt 0 view .LVU82
 242 00a4 0CF1FF3C 		add	ip, ip, #-1
 243              	.LVL31:
 188:Drivers/CMSIS/DSP/Source/FilteringFunctions/arm_conv_partial_fast_q15.c **** 
 244              		.loc 1 188 12 view .LVU83
 245 00a8 0192     		str	r2, [sp, #4]
 246              	.LVL32:
 247              	.L7:
 169:Drivers/CMSIS/DSP/Source/FilteringFunctions/arm_conv_partial_fast_q15.c ****     {
 248              		.loc 1 169 25 is_stmt 1 view .LVU84
 249 00aa 032C     		cmp	r4, #3
 250 00ac 07D8     		bhi	.L9
 169:Drivers/CMSIS/DSP/Source/FilteringFunctions/arm_conv_partial_fast_q15.c ****     {
 251              		.loc 1 169 25 is_stmt 0 discriminator 1 view .LVU85
 252 00ae BCF1000F 		cmp	ip, #0
 253 00b2 04DD     		ble	.L9
 254 00b4 7146     		mov	r1, lr
 255 00b6 059A     		ldr	r2, [sp, #20]
 176:Drivers/CMSIS/DSP/Source/FilteringFunctions/arm_conv_partial_fast_q15.c **** 
 256              		.loc 1 176 9 view .LVU86
 257 00b8 2646     		mov	r6, r4
 172:Drivers/CMSIS/DSP/Source/FilteringFunctions/arm_conv_partial_fast_q15.c **** 
 258              		.loc 1 172 11 view .LVU87
 259 00ba 0023     		movs	r3, #0
 260 00bc E8E7     		b	.L10
 261              	.L9:
 199:Drivers/CMSIS/DSP/Source/FilteringFunctions/arm_conv_partial_fast_q15.c ****     }
 200:Drivers/CMSIS/DSP/Source/FilteringFunctions/arm_conv_partial_fast_q15.c **** 
 201:Drivers/CMSIS/DSP/Source/FilteringFunctions/arm_conv_partial_fast_q15.c ****     /* The second part of the stage starts here */
 202:Drivers/CMSIS/DSP/Source/FilteringFunctions/arm_conv_partial_fast_q15.c ****     /* The internal loop, over count, is unrolled by 4 */
 203:Drivers/CMSIS/DSP/Source/FilteringFunctions/arm_conv_partial_fast_q15.c ****     /* To, read the last two inputB samples using SIMD:
 204:Drivers/CMSIS/DSP/Source/FilteringFunctions/arm_conv_partial_fast_q15.c ****      * y[srcBLen] and y[srcBLen-1] coefficients, py is decremented by 1 */
 205:Drivers/CMSIS/DSP/Source/FilteringFunctions/arm_conv_partial_fast_q15.c ****     py = py - 1;
 262              		.loc 1 205 5 is_stmt 1 view .LVU88
 263              		.loc 1 205 13 is_stmt 0 view .LVU89
 264 00be AEF10202 		sub	r2, lr, #2
 265              	.LVL33:
 206:Drivers/CMSIS/DSP/Source/FilteringFunctions/arm_conv_partial_fast_q15.c **** 
 207:Drivers/CMSIS/DSP/Source/FilteringFunctions/arm_conv_partial_fast_q15.c ****     while (blockSize1 > 0)
ARM GAS  C:\Users\ACER\AppData\Local\Temp\cclMZ9Th.s 			page 43


 266              		.loc 1 207 5 is_stmt 1 view .LVU90
 267 00c2 2646     		mov	r6, r4
 268 00c4 AB46     		mov	fp, r5
 269 00c6 BA46     		mov	r10, r7
 270              		.loc 1 207 11 is_stmt 0 view .LVU91
 271 00c8 2EE0     		b	.L11
 272              	.LVL34:
 273              	.L13:
 208:Drivers/CMSIS/DSP/Source/FilteringFunctions/arm_conv_partial_fast_q15.c ****     {
 209:Drivers/CMSIS/DSP/Source/FilteringFunctions/arm_conv_partial_fast_q15.c ****       /* Accumulator is made zero for every iteration */
 210:Drivers/CMSIS/DSP/Source/FilteringFunctions/arm_conv_partial_fast_q15.c ****       sum = 0;
 211:Drivers/CMSIS/DSP/Source/FilteringFunctions/arm_conv_partial_fast_q15.c **** 
 212:Drivers/CMSIS/DSP/Source/FilteringFunctions/arm_conv_partial_fast_q15.c ****       /* Apply loop unrolling and compute 4 MACs simultaneously. */
 213:Drivers/CMSIS/DSP/Source/FilteringFunctions/arm_conv_partial_fast_q15.c ****       k = count >> 2U;
 214:Drivers/CMSIS/DSP/Source/FilteringFunctions/arm_conv_partial_fast_q15.c **** 
 215:Drivers/CMSIS/DSP/Source/FilteringFunctions/arm_conv_partial_fast_q15.c ****       /* First part of the processing with loop unrolling.  Compute 4 MACs at a time.
 216:Drivers/CMSIS/DSP/Source/FilteringFunctions/arm_conv_partial_fast_q15.c ****        ** a second loop below computes MACs for the remaining 1 to 3 samples. */
 217:Drivers/CMSIS/DSP/Source/FilteringFunctions/arm_conv_partial_fast_q15.c ****       while (k > 0U)
 218:Drivers/CMSIS/DSP/Source/FilteringFunctions/arm_conv_partial_fast_q15.c ****       {
 219:Drivers/CMSIS/DSP/Source/FilteringFunctions/arm_conv_partial_fast_q15.c ****         /* Perform the multiply-accumulates */
 220:Drivers/CMSIS/DSP/Source/FilteringFunctions/arm_conv_partial_fast_q15.c ****         /* x[0], x[1] are multiplied with y[srcBLen - 1], y[srcBLen - 2] respectively */
 221:Drivers/CMSIS/DSP/Source/FilteringFunctions/arm_conv_partial_fast_q15.c ****         sum = __SMLADX(*__SIMD32(px)++, *__SIMD32(py)--, sum);
 274              		.loc 1 221 9 is_stmt 1 view .LVU92
 275              		.loc 1 221 24 is_stmt 0 view .LVU93
 276 00ca 0D46     		mov	r5, r1
 277 00cc 55F8087B 		ldr	r7, [r5], #8
 278              	.LVL35:
 279              		.loc 1 221 41 view .LVU94
 280 00d0 1646     		mov	r6, r2
 281 00d2 56F80809 		ldr	r0, [r6], #-8
 282              	.LVL36:
 283              	.LBB68:
 284              	.LBI68:
1912:Drivers/CMSIS/Include/cmsis_gcc.h **** }
1913:Drivers/CMSIS/Include/cmsis_gcc.h **** 
1914:Drivers/CMSIS/Include/cmsis_gcc.h **** __STATIC_FORCEINLINE uint32_t __SMLADX (uint32_t op1, uint32_t op2, uint32_t op3)
 285              		.loc 2 1914 31 is_stmt 1 view .LVU95
 286              	.LBB69:
1915:Drivers/CMSIS/Include/cmsis_gcc.h **** {
1916:Drivers/CMSIS/Include/cmsis_gcc.h ****   uint32_t result;
 287              		.loc 2 1916 3 view .LVU96
1917:Drivers/CMSIS/Include/cmsis_gcc.h **** 
1918:Drivers/CMSIS/Include/cmsis_gcc.h ****   __ASM volatile ("smladx %0, %1, %2, %3" : "=r" (result) : "r" (op1), "r" (op2), "r" (op3) );
 288              		.loc 2 1918 3 view .LVU97
 289              		.syntax unified
 290              	@ 1918 "Drivers/CMSIS/Include/cmsis_gcc.h" 1
 291 00d6 27FB1037 		smladx r7, r7, r0, r3
 292              	@ 0 "" 2
 293              	.LVL37:
1919:Drivers/CMSIS/Include/cmsis_gcc.h ****   return(result);
 294              		.loc 2 1919 3 view .LVU98
 295              		.loc 2 1919 3 is_stmt 0 view .LVU99
 296              		.thumb
 297              		.syntax unified
 298              	.LBE69:
 299              	.LBE68:
 222:Drivers/CMSIS/DSP/Source/FilteringFunctions/arm_conv_partial_fast_q15.c ****         /* x[2], x[3] are multiplied with y[srcBLen - 3], y[srcBLen - 4] respectively */
ARM GAS  C:\Users\ACER\AppData\Local\Temp\cclMZ9Th.s 			page 44


 223:Drivers/CMSIS/DSP/Source/FilteringFunctions/arm_conv_partial_fast_q15.c ****         sum = __SMLADX(*__SIMD32(px)++, *__SIMD32(py)--, sum);
 300              		.loc 1 223 9 is_stmt 1 view .LVU100
 301              		.loc 1 223 24 is_stmt 0 view .LVU101
 302 00da 4B68     		ldr	r3, [r1, #4]
 303              	.LVL38:
 304              		.loc 1 223 41 view .LVU102
 305 00dc 52F8042C 		ldr	r2, [r2, #-4]
 306              	.LVL39:
 307              	.LBB70:
 308              	.LBI70:
1914:Drivers/CMSIS/Include/cmsis_gcc.h **** {
 309              		.loc 2 1914 31 is_stmt 1 view .LVU103
 310              	.LBB71:
1916:Drivers/CMSIS/Include/cmsis_gcc.h **** 
 311              		.loc 2 1916 3 view .LVU104
1918:Drivers/CMSIS/Include/cmsis_gcc.h ****   return(result);
 312              		.loc 2 1918 3 view .LVU105
 313              		.syntax unified
 314              	@ 1918 "Drivers/CMSIS/Include/cmsis_gcc.h" 1
 315 00e0 23FB1273 		smladx r3, r3, r2, r7
 316              	@ 0 "" 2
 317              	.LVL40:
 318              		.loc 2 1919 3 view .LVU106
 319              		.loc 2 1919 3 is_stmt 0 view .LVU107
 320              		.thumb
 321              		.syntax unified
 322              	.LBE71:
 323              	.LBE70:
 224:Drivers/CMSIS/DSP/Source/FilteringFunctions/arm_conv_partial_fast_q15.c **** 
 225:Drivers/CMSIS/DSP/Source/FilteringFunctions/arm_conv_partial_fast_q15.c ****         /* Decrement the loop counter */
 226:Drivers/CMSIS/DSP/Source/FilteringFunctions/arm_conv_partial_fast_q15.c ****         k--;
 324              		.loc 1 226 9 is_stmt 1 view .LVU108
 325              		.loc 1 226 10 is_stmt 0 view .LVU109
 326 00e4 013C     		subs	r4, r4, #1
 327              	.LVL41:
 223:Drivers/CMSIS/DSP/Source/FilteringFunctions/arm_conv_partial_fast_q15.c **** 
 328              		.loc 1 223 54 view .LVU110
 329 00e6 3246     		mov	r2, r6
 223:Drivers/CMSIS/DSP/Source/FilteringFunctions/arm_conv_partial_fast_q15.c **** 
 330              		.loc 1 223 37 view .LVU111
 331 00e8 2946     		mov	r1, r5
 332              	.LVL42:
 333              	.L12:
 217:Drivers/CMSIS/DSP/Source/FilteringFunctions/arm_conv_partial_fast_q15.c ****       {
 334              		.loc 1 217 16 is_stmt 1 view .LVU112
 335 00ea 002C     		cmp	r4, #0
 336 00ec EDD1     		bne	.L13
 227:Drivers/CMSIS/DSP/Source/FilteringFunctions/arm_conv_partial_fast_q15.c ****       }
 228:Drivers/CMSIS/DSP/Source/FilteringFunctions/arm_conv_partial_fast_q15.c **** 
 229:Drivers/CMSIS/DSP/Source/FilteringFunctions/arm_conv_partial_fast_q15.c ****       /* For the next MAC operations, the pointer py is used without SIMD
 230:Drivers/CMSIS/DSP/Source/FilteringFunctions/arm_conv_partial_fast_q15.c ****        * So, py is incremented by 1 */
 231:Drivers/CMSIS/DSP/Source/FilteringFunctions/arm_conv_partial_fast_q15.c ****       py = py + 1U;
 337              		.loc 1 231 15 is_stmt 0 view .LVU113
 338 00ee 039E     		ldr	r6, [sp, #12]
 339 00f0 7046     		mov	r0, lr
 340 00f2 DDF808E0 		ldr	lr, [sp, #8]
 341              	.LVL43:
ARM GAS  C:\Users\ACER\AppData\Local\Temp\cclMZ9Th.s 			page 45


 342              		.loc 1 231 7 is_stmt 1 view .LVU114
 343              		.loc 1 231 15 is_stmt 0 view .LVU115
 344 00f6 0232     		adds	r2, r2, #2
 345              	.LVL44:
 232:Drivers/CMSIS/DSP/Source/FilteringFunctions/arm_conv_partial_fast_q15.c **** 
 233:Drivers/CMSIS/DSP/Source/FilteringFunctions/arm_conv_partial_fast_q15.c ****       /* If the count is not a multiple of 4, compute any remaining MACs here.
 234:Drivers/CMSIS/DSP/Source/FilteringFunctions/arm_conv_partial_fast_q15.c ****        ** No loop unrolling is used. */
 235:Drivers/CMSIS/DSP/Source/FilteringFunctions/arm_conv_partial_fast_q15.c ****       k = count % 0x4U;
 346              		.loc 1 235 7 is_stmt 1 view .LVU116
 347              		.loc 1 235 9 is_stmt 0 view .LVU117
 348 00f8 06F00304 		and	r4, r6, #3
 349              	.LVL45:
 236:Drivers/CMSIS/DSP/Source/FilteringFunctions/arm_conv_partial_fast_q15.c **** 
 237:Drivers/CMSIS/DSP/Source/FilteringFunctions/arm_conv_partial_fast_q15.c ****       while (k > 0U)
 350              		.loc 1 237 7 is_stmt 1 view .LVU118
 351              		.loc 1 237 13 is_stmt 0 view .LVU119
 352 00fc 06E0     		b	.L14
 353              	.LVL46:
 354              	.L15:
 238:Drivers/CMSIS/DSP/Source/FilteringFunctions/arm_conv_partial_fast_q15.c ****       {
 239:Drivers/CMSIS/DSP/Source/FilteringFunctions/arm_conv_partial_fast_q15.c ****         /* Perform the multiply-accumulates */
 240:Drivers/CMSIS/DSP/Source/FilteringFunctions/arm_conv_partial_fast_q15.c ****         sum = __SMLAD(*px++, *py--, sum);
 355              		.loc 1 240 9 is_stmt 1 view .LVU120
 356              		.loc 1 240 23 is_stmt 0 view .LVU121
 357 00fe 31F9025B 		ldrsh	r5, [r1], #2
 358              	.LVL47:
 359              		.loc 1 240 30 view .LVU122
 360 0102 32F90279 		ldrsh	r7, [r2], #-2
 361              	.LVL48:
 362              	.LBB72:
 363              	.LBI72:
1906:Drivers/CMSIS/Include/cmsis_gcc.h **** {
 364              		.loc 2 1906 31 is_stmt 1 view .LVU123
 365              	.LBB73:
1908:Drivers/CMSIS/Include/cmsis_gcc.h **** 
 366              		.loc 2 1908 3 view .LVU124
1910:Drivers/CMSIS/Include/cmsis_gcc.h ****   return(result);
 367              		.loc 2 1910 3 view .LVU125
 368              		.syntax unified
 369              	@ 1910 "Drivers/CMSIS/Include/cmsis_gcc.h" 1
 370 0106 25FB0733 		smlad r3, r5, r7, r3
 371              	@ 0 "" 2
 372              	.LVL49:
1911:Drivers/CMSIS/Include/cmsis_gcc.h **** }
 373              		.loc 2 1911 3 view .LVU126
1911:Drivers/CMSIS/Include/cmsis_gcc.h **** }
 374              		.loc 2 1911 3 is_stmt 0 view .LVU127
 375              		.thumb
 376              		.syntax unified
 377              	.LBE73:
 378              	.LBE72:
 241:Drivers/CMSIS/DSP/Source/FilteringFunctions/arm_conv_partial_fast_q15.c **** 
 242:Drivers/CMSIS/DSP/Source/FilteringFunctions/arm_conv_partial_fast_q15.c ****         /* Decrement the loop counter */
 243:Drivers/CMSIS/DSP/Source/FilteringFunctions/arm_conv_partial_fast_q15.c ****         k--;
 379              		.loc 1 243 9 is_stmt 1 view .LVU128
 380              		.loc 1 243 10 is_stmt 0 view .LVU129
 381 010a 013C     		subs	r4, r4, #1
ARM GAS  C:\Users\ACER\AppData\Local\Temp\cclMZ9Th.s 			page 46


 382              	.LVL50:
 383              	.L14:
 237:Drivers/CMSIS/DSP/Source/FilteringFunctions/arm_conv_partial_fast_q15.c ****       {
 384              		.loc 1 237 16 is_stmt 1 view .LVU130
 385 010c 002C     		cmp	r4, #0
 386 010e F6D1     		bne	.L15
 244:Drivers/CMSIS/DSP/Source/FilteringFunctions/arm_conv_partial_fast_q15.c ****       }
 245:Drivers/CMSIS/DSP/Source/FilteringFunctions/arm_conv_partial_fast_q15.c **** 
 246:Drivers/CMSIS/DSP/Source/FilteringFunctions/arm_conv_partial_fast_q15.c ****       /* Store the result in the accumulator in the destination buffer. */
 247:Drivers/CMSIS/DSP/Source/FilteringFunctions/arm_conv_partial_fast_q15.c ****       *pOut++ = (q15_t) (sum >> 15);
 387              		.loc 1 247 7 view .LVU131
 388              		.loc 1 247 12 is_stmt 0 view .LVU132
 389 0110 0199     		ldr	r1, [sp, #4]
 390              	.LVL51:
 391              		.loc 1 247 17 view .LVU133
 392 0112 43F3CF33 		sbfx	r3, r3, #15, #16
 393              	.LVL52:
 394              		.loc 1 247 15 view .LVU134
 395 0116 21F8023B 		strh	r3, [r1], #2	@ movhi
 396              	.LVL53:
 248:Drivers/CMSIS/DSP/Source/FilteringFunctions/arm_conv_partial_fast_q15.c **** 
 249:Drivers/CMSIS/DSP/Source/FilteringFunctions/arm_conv_partial_fast_q15.c ****       /* Update the inputA and inputB pointers for next MAC calculation */
 250:Drivers/CMSIS/DSP/Source/FilteringFunctions/arm_conv_partial_fast_q15.c ****       py = ++pSrc2 - 1U;
 397              		.loc 1 250 7 is_stmt 1 view .LVU135
 251:Drivers/CMSIS/DSP/Source/FilteringFunctions/arm_conv_partial_fast_q15.c ****       px = pIn1;
 398              		.loc 1 251 7 view .LVU136
 252:Drivers/CMSIS/DSP/Source/FilteringFunctions/arm_conv_partial_fast_q15.c **** 
 253:Drivers/CMSIS/DSP/Source/FilteringFunctions/arm_conv_partial_fast_q15.c ****       /* Increment the MAC count */
 254:Drivers/CMSIS/DSP/Source/FilteringFunctions/arm_conv_partial_fast_q15.c ****       count++;
 399              		.loc 1 254 7 view .LVU137
 400              		.loc 1 254 12 is_stmt 0 view .LVU138
 401 011a 0136     		adds	r6, r6, #1
 402              	.LVL54:
 255:Drivers/CMSIS/DSP/Source/FilteringFunctions/arm_conv_partial_fast_q15.c **** 
 256:Drivers/CMSIS/DSP/Source/FilteringFunctions/arm_conv_partial_fast_q15.c ****       /* Decrement the loop counter */
 257:Drivers/CMSIS/DSP/Source/FilteringFunctions/arm_conv_partial_fast_q15.c ****       blockSize1--;
 403              		.loc 1 257 7 is_stmt 1 view .LVU139
 404              		.loc 1 257 17 is_stmt 0 view .LVU140
 405 011c 0CF1FF3C 		add	ip, ip, #-1
 406              	.LVL55:
 250:Drivers/CMSIS/DSP/Source/FilteringFunctions/arm_conv_partial_fast_q15.c ****       px = pIn1;
 407              		.loc 1 250 10 view .LVU141
 408 0120 7246     		mov	r2, lr
 247:Drivers/CMSIS/DSP/Source/FilteringFunctions/arm_conv_partial_fast_q15.c **** 
 409              		.loc 1 247 12 view .LVU142
 410 0122 0191     		str	r1, [sp, #4]
 250:Drivers/CMSIS/DSP/Source/FilteringFunctions/arm_conv_partial_fast_q15.c ****       px = pIn1;
 411              		.loc 1 250 10 view .LVU143
 412 0124 0EF1020E 		add	lr, lr, #2
 413              	.LVL56:
 414              	.L11:
 207:Drivers/CMSIS/DSP/Source/FilteringFunctions/arm_conv_partial_fast_q15.c ****     {
 415              		.loc 1 207 23 is_stmt 1 view .LVU144
 416 0128 BCF1000F 		cmp	ip, #0
 417 012c 07DD     		ble	.L58
 210:Drivers/CMSIS/DSP/Source/FilteringFunctions/arm_conv_partial_fast_q15.c **** 
 418              		.loc 1 210 7 view .LVU145
ARM GAS  C:\Users\ACER\AppData\Local\Temp\cclMZ9Th.s 			page 47


 419              	.LVL57:
 213:Drivers/CMSIS/DSP/Source/FilteringFunctions/arm_conv_partial_fast_q15.c **** 
 420              		.loc 1 213 7 view .LVU146
 213:Drivers/CMSIS/DSP/Source/FilteringFunctions/arm_conv_partial_fast_q15.c **** 
 421              		.loc 1 213 9 is_stmt 0 view .LVU147
 422 012e B408     		lsrs	r4, r6, #2
 423              	.LVL58:
 217:Drivers/CMSIS/DSP/Source/FilteringFunctions/arm_conv_partial_fast_q15.c ****       {
 424              		.loc 1 217 7 is_stmt 1 view .LVU148
 217:Drivers/CMSIS/DSP/Source/FilteringFunctions/arm_conv_partial_fast_q15.c ****       {
 425              		.loc 1 217 13 is_stmt 0 view .LVU149
 426 0130 0599     		ldr	r1, [sp, #20]
 210:Drivers/CMSIS/DSP/Source/FilteringFunctions/arm_conv_partial_fast_q15.c **** 
 427              		.loc 1 210 11 view .LVU150
 428 0132 0023     		movs	r3, #0
 429 0134 CDF808E0 		str	lr, [sp, #8]
 430 0138 0396     		str	r6, [sp, #12]
 431 013a 8646     		mov	lr, r0
 432              	.LVL59:
 217:Drivers/CMSIS/DSP/Source/FilteringFunctions/arm_conv_partial_fast_q15.c ****       {
 433              		.loc 1 217 13 view .LVU151
 434 013c D5E7     		b	.L12
 435              	.LVL60:
 436              	.L58:
 258:Drivers/CMSIS/DSP/Source/FilteringFunctions/arm_conv_partial_fast_q15.c ****     }
 259:Drivers/CMSIS/DSP/Source/FilteringFunctions/arm_conv_partial_fast_q15.c **** 
 260:Drivers/CMSIS/DSP/Source/FilteringFunctions/arm_conv_partial_fast_q15.c ****     /* --------------------------
 261:Drivers/CMSIS/DSP/Source/FilteringFunctions/arm_conv_partial_fast_q15.c ****      * Initializations of stage2
 262:Drivers/CMSIS/DSP/Source/FilteringFunctions/arm_conv_partial_fast_q15.c ****      * ------------------------*/
 263:Drivers/CMSIS/DSP/Source/FilteringFunctions/arm_conv_partial_fast_q15.c **** 
 264:Drivers/CMSIS/DSP/Source/FilteringFunctions/arm_conv_partial_fast_q15.c ****     /* sum = x[0] * y[srcBLen-1] + x[1] * y[srcBLen-2] +...+ x[srcBLen-1] * y[0]
 265:Drivers/CMSIS/DSP/Source/FilteringFunctions/arm_conv_partial_fast_q15.c ****      * sum = x[1] * y[srcBLen-1] + x[2] * y[srcBLen-2] +...+ x[srcBLen] * y[0]
 266:Drivers/CMSIS/DSP/Source/FilteringFunctions/arm_conv_partial_fast_q15.c ****      * ....
 267:Drivers/CMSIS/DSP/Source/FilteringFunctions/arm_conv_partial_fast_q15.c ****      * sum = x[srcALen-srcBLen-2] * y[srcBLen-1] + x[srcALen] * y[srcBLen-2] +...+ x[srcALen-1] * y
 268:Drivers/CMSIS/DSP/Source/FilteringFunctions/arm_conv_partial_fast_q15.c ****      */
 269:Drivers/CMSIS/DSP/Source/FilteringFunctions/arm_conv_partial_fast_q15.c **** 
 270:Drivers/CMSIS/DSP/Source/FilteringFunctions/arm_conv_partial_fast_q15.c ****     /* Working pointer of inputA */
 271:Drivers/CMSIS/DSP/Source/FilteringFunctions/arm_conv_partial_fast_q15.c ****     if ((int32_t)firstIndex - (int32_t)srcBLen + 1 > 0)
 437              		.loc 1 271 8 view .LVU152
 438 013e 5D46     		mov	r5, fp
 439 0140 5746     		mov	r7, r10
 440              		.loc 1 271 5 is_stmt 1 view .LVU153
 441              		.loc 1 271 8 is_stmt 0 view .LVU154
 442 0142 079B     		ldr	r3, [sp, #28]
 443 0144 C11A     		subs	r1, r0, r3
 444 0146 19D4     		bmi	.L53
 445              	.LVL61:
 272:Drivers/CMSIS/DSP/Source/FilteringFunctions/arm_conv_partial_fast_q15.c ****     {
 273:Drivers/CMSIS/DSP/Source/FilteringFunctions/arm_conv_partial_fast_q15.c ****       px = pIn1 + firstIndex - srcBLen + 1;
 446              		.loc 1 273 7 is_stmt 1 view .LVU155
 447              		.loc 1 273 30 is_stmt 0 view .LVU156
 448 0148 0B46     		mov	r3, r1
 449              		.loc 1 273 40 view .LVU157
 450 014a 0133     		adds	r3, r3, #1
 451 014c 059A     		ldr	r2, [sp, #20]
 452              	.LVL62:
 453              		.loc 1 273 40 view .LVU158
ARM GAS  C:\Users\ACER\AppData\Local\Temp\cclMZ9Th.s 			page 48


 454 014e 02EB4303 		add	r3, r2, r3, lsl #1
 455              	.LVL63:
 456              	.L17:
 274:Drivers/CMSIS/DSP/Source/FilteringFunctions/arm_conv_partial_fast_q15.c ****     }
 275:Drivers/CMSIS/DSP/Source/FilteringFunctions/arm_conv_partial_fast_q15.c ****     else
 276:Drivers/CMSIS/DSP/Source/FilteringFunctions/arm_conv_partial_fast_q15.c ****     {
 277:Drivers/CMSIS/DSP/Source/FilteringFunctions/arm_conv_partial_fast_q15.c ****       px = pIn1;
 278:Drivers/CMSIS/DSP/Source/FilteringFunctions/arm_conv_partial_fast_q15.c ****     }
 279:Drivers/CMSIS/DSP/Source/FilteringFunctions/arm_conv_partial_fast_q15.c **** 
 280:Drivers/CMSIS/DSP/Source/FilteringFunctions/arm_conv_partial_fast_q15.c ****     /* Working pointer of inputB */
 281:Drivers/CMSIS/DSP/Source/FilteringFunctions/arm_conv_partial_fast_q15.c ****     pSrc2 = pIn2 + (srcBLen - 1U);
 457              		.loc 1 281 5 is_stmt 1 view .LVU159
 458              		.loc 1 281 18 is_stmt 0 view .LVU160
 459 0152 079C     		ldr	r4, [sp, #28]
 460 0154 04F10042 		add	r2, r4, #-2147483648
 461 0158 013A     		subs	r2, r2, #1
 462              		.loc 1 281 11 view .LVU161
 463 015a 08EB4202 		add	r2, r8, r2, lsl #1
 464 015e 0692     		str	r2, [sp, #24]
 465              	.LVL64:
 282:Drivers/CMSIS/DSP/Source/FilteringFunctions/arm_conv_partial_fast_q15.c ****     py = pSrc2;
 466              		.loc 1 282 5 is_stmt 1 view .LVU162
 283:Drivers/CMSIS/DSP/Source/FilteringFunctions/arm_conv_partial_fast_q15.c **** 
 284:Drivers/CMSIS/DSP/Source/FilteringFunctions/arm_conv_partial_fast_q15.c ****     /* count is the index by which the pointer pIn1 to be incremented */
 285:Drivers/CMSIS/DSP/Source/FilteringFunctions/arm_conv_partial_fast_q15.c ****     count = 0U;
 467              		.loc 1 285 5 view .LVU163
 286:Drivers/CMSIS/DSP/Source/FilteringFunctions/arm_conv_partial_fast_q15.c **** 
 287:Drivers/CMSIS/DSP/Source/FilteringFunctions/arm_conv_partial_fast_q15.c **** 
 288:Drivers/CMSIS/DSP/Source/FilteringFunctions/arm_conv_partial_fast_q15.c ****     /* --------------------
 289:Drivers/CMSIS/DSP/Source/FilteringFunctions/arm_conv_partial_fast_q15.c ****      * Stage2 process
 290:Drivers/CMSIS/DSP/Source/FilteringFunctions/arm_conv_partial_fast_q15.c ****      * -------------------*/
 291:Drivers/CMSIS/DSP/Source/FilteringFunctions/arm_conv_partial_fast_q15.c **** 
 292:Drivers/CMSIS/DSP/Source/FilteringFunctions/arm_conv_partial_fast_q15.c ****     /* Stage2 depends on srcBLen as in this stage srcBLen number of MACS are performed.
 293:Drivers/CMSIS/DSP/Source/FilteringFunctions/arm_conv_partial_fast_q15.c ****      * So, to loop unroll over blockSize2,
 294:Drivers/CMSIS/DSP/Source/FilteringFunctions/arm_conv_partial_fast_q15.c ****      * srcBLen should be greater than or equal to 4 */
 295:Drivers/CMSIS/DSP/Source/FilteringFunctions/arm_conv_partial_fast_q15.c ****     if (srcBLen >= 4U)
 468              		.loc 1 295 5 view .LVU164
 469              		.loc 1 295 8 is_stmt 0 view .LVU165
 470 0160 032C     		cmp	r4, #3
 471 0162 40F20981 		bls	.L18
 296:Drivers/CMSIS/DSP/Source/FilteringFunctions/arm_conv_partial_fast_q15.c ****     {
 297:Drivers/CMSIS/DSP/Source/FilteringFunctions/arm_conv_partial_fast_q15.c ****       /* Loop unroll over blockSize2, by 4 */
 298:Drivers/CMSIS/DSP/Source/FilteringFunctions/arm_conv_partial_fast_q15.c ****       blkCnt = ((uint32_t) blockSize2 >> 2U);
 472              		.loc 1 298 7 is_stmt 1 view .LVU166
 473              		.loc 1 298 14 is_stmt 0 view .LVU167
 474 0166 BA08     		lsrs	r2, r7, #2
 475              	.LVL65:
 476              		.loc 1 298 14 view .LVU168
 477 0168 0892     		str	r2, [sp, #32]
 478              	.LVL66:
 299:Drivers/CMSIS/DSP/Source/FilteringFunctions/arm_conv_partial_fast_q15.c **** 
 300:Drivers/CMSIS/DSP/Source/FilteringFunctions/arm_conv_partial_fast_q15.c ****       while (blkCnt > 0U)
 479              		.loc 1 300 7 is_stmt 1 view .LVU169
 285:Drivers/CMSIS/DSP/Source/FilteringFunctions/arm_conv_partial_fast_q15.c **** 
 480              		.loc 1 285 11 is_stmt 0 view .LVU170
 481 016a 0022     		movs	r2, #0
 482              	.LVL67:
ARM GAS  C:\Users\ACER\AppData\Local\Temp\cclMZ9Th.s 			page 49


 285:Drivers/CMSIS/DSP/Source/FilteringFunctions/arm_conv_partial_fast_q15.c **** 
 483              		.loc 1 285 11 view .LVU171
 484 016c 0992     		str	r2, [sp, #36]
 485 016e 0A91     		str	r1, [sp, #40]
 486 0170 0B95     		str	r5, [sp, #44]
 487 0172 0C97     		str	r7, [sp, #48]
 488 0174 CDF83490 		str	r9, [sp, #52]
 489 0178 1990     		str	r0, [sp, #100]
 490              	.LVL68:
 491              		.loc 1 300 13 view .LVU172
 492 017a 44E0     		b	.L19
 493              	.LVL69:
 494              	.L53:
 277:Drivers/CMSIS/DSP/Source/FilteringFunctions/arm_conv_partial_fast_q15.c ****     }
 495              		.loc 1 277 10 view .LVU173
 496 017c 059B     		ldr	r3, [sp, #20]
 497 017e E8E7     		b	.L17
 498              	.LVL70:
 499              	.L60:
 301:Drivers/CMSIS/DSP/Source/FilteringFunctions/arm_conv_partial_fast_q15.c ****       {
 302:Drivers/CMSIS/DSP/Source/FilteringFunctions/arm_conv_partial_fast_q15.c ****       py = py - 1U;
 303:Drivers/CMSIS/DSP/Source/FilteringFunctions/arm_conv_partial_fast_q15.c **** 
 304:Drivers/CMSIS/DSP/Source/FilteringFunctions/arm_conv_partial_fast_q15.c ****         /* Set all accumulators to zero */
 305:Drivers/CMSIS/DSP/Source/FilteringFunctions/arm_conv_partial_fast_q15.c ****         acc0 = 0;
 306:Drivers/CMSIS/DSP/Source/FilteringFunctions/arm_conv_partial_fast_q15.c ****         acc1 = 0;
 307:Drivers/CMSIS/DSP/Source/FilteringFunctions/arm_conv_partial_fast_q15.c ****         acc2 = 0;
 308:Drivers/CMSIS/DSP/Source/FilteringFunctions/arm_conv_partial_fast_q15.c ****         acc3 = 0;
 309:Drivers/CMSIS/DSP/Source/FilteringFunctions/arm_conv_partial_fast_q15.c **** 
 310:Drivers/CMSIS/DSP/Source/FilteringFunctions/arm_conv_partial_fast_q15.c **** 
 311:Drivers/CMSIS/DSP/Source/FilteringFunctions/arm_conv_partial_fast_q15.c ****         /* read x[0], x[1] samples */
 312:Drivers/CMSIS/DSP/Source/FilteringFunctions/arm_conv_partial_fast_q15.c ****       x0 = *__SIMD32(px);
 313:Drivers/CMSIS/DSP/Source/FilteringFunctions/arm_conv_partial_fast_q15.c ****         /* read x[1], x[2] samples */
 314:Drivers/CMSIS/DSP/Source/FilteringFunctions/arm_conv_partial_fast_q15.c ****       x1 = _SIMD32_OFFSET(px+1);
 315:Drivers/CMSIS/DSP/Source/FilteringFunctions/arm_conv_partial_fast_q15.c **** 	  px+= 2U;
 316:Drivers/CMSIS/DSP/Source/FilteringFunctions/arm_conv_partial_fast_q15.c **** 
 317:Drivers/CMSIS/DSP/Source/FilteringFunctions/arm_conv_partial_fast_q15.c **** 
 318:Drivers/CMSIS/DSP/Source/FilteringFunctions/arm_conv_partial_fast_q15.c ****         /* Apply loop unrolling and compute 4 MACs simultaneously. */
 319:Drivers/CMSIS/DSP/Source/FilteringFunctions/arm_conv_partial_fast_q15.c ****         k = srcBLen >> 2U;
 320:Drivers/CMSIS/DSP/Source/FilteringFunctions/arm_conv_partial_fast_q15.c **** 
 321:Drivers/CMSIS/DSP/Source/FilteringFunctions/arm_conv_partial_fast_q15.c ****         /* First part of the processing with loop unrolling.  Compute 4 MACs at a time.
 322:Drivers/CMSIS/DSP/Source/FilteringFunctions/arm_conv_partial_fast_q15.c ****          ** a second loop below computes MACs for the remaining 1 to 3 samples. */
 323:Drivers/CMSIS/DSP/Source/FilteringFunctions/arm_conv_partial_fast_q15.c ****         do
 324:Drivers/CMSIS/DSP/Source/FilteringFunctions/arm_conv_partial_fast_q15.c ****         {
 325:Drivers/CMSIS/DSP/Source/FilteringFunctions/arm_conv_partial_fast_q15.c ****           /* Read the last two inputB samples using SIMD:
 326:Drivers/CMSIS/DSP/Source/FilteringFunctions/arm_conv_partial_fast_q15.c ****            * y[srcBLen - 1] and y[srcBLen - 2] */
 327:Drivers/CMSIS/DSP/Source/FilteringFunctions/arm_conv_partial_fast_q15.c ****         c0 = *__SIMD32(py)--;
 328:Drivers/CMSIS/DSP/Source/FilteringFunctions/arm_conv_partial_fast_q15.c **** 
 329:Drivers/CMSIS/DSP/Source/FilteringFunctions/arm_conv_partial_fast_q15.c ****           /* acc0 +=  x[0] * y[srcBLen - 1] + x[1] * y[srcBLen - 2] */
 330:Drivers/CMSIS/DSP/Source/FilteringFunctions/arm_conv_partial_fast_q15.c ****           acc0 = __SMLADX(x0, c0, acc0);
 331:Drivers/CMSIS/DSP/Source/FilteringFunctions/arm_conv_partial_fast_q15.c **** 
 332:Drivers/CMSIS/DSP/Source/FilteringFunctions/arm_conv_partial_fast_q15.c ****           /* acc1 +=  x[1] * y[srcBLen - 1] + x[2] * y[srcBLen - 2] */
 333:Drivers/CMSIS/DSP/Source/FilteringFunctions/arm_conv_partial_fast_q15.c ****           acc1 = __SMLADX(x1, c0, acc1);
 334:Drivers/CMSIS/DSP/Source/FilteringFunctions/arm_conv_partial_fast_q15.c **** 
 335:Drivers/CMSIS/DSP/Source/FilteringFunctions/arm_conv_partial_fast_q15.c ****           /* Read x[2], x[3] */
 336:Drivers/CMSIS/DSP/Source/FilteringFunctions/arm_conv_partial_fast_q15.c ****         x2 = *__SIMD32(px);
 337:Drivers/CMSIS/DSP/Source/FilteringFunctions/arm_conv_partial_fast_q15.c **** 
 338:Drivers/CMSIS/DSP/Source/FilteringFunctions/arm_conv_partial_fast_q15.c ****           /* Read x[3], x[4] */
ARM GAS  C:\Users\ACER\AppData\Local\Temp\cclMZ9Th.s 			page 50


 339:Drivers/CMSIS/DSP/Source/FilteringFunctions/arm_conv_partial_fast_q15.c ****         x3 = _SIMD32_OFFSET(px+1);
 340:Drivers/CMSIS/DSP/Source/FilteringFunctions/arm_conv_partial_fast_q15.c **** 
 341:Drivers/CMSIS/DSP/Source/FilteringFunctions/arm_conv_partial_fast_q15.c ****           /* acc2 +=  x[2] * y[srcBLen - 1] + x[3] * y[srcBLen - 2] */
 342:Drivers/CMSIS/DSP/Source/FilteringFunctions/arm_conv_partial_fast_q15.c ****           acc2 = __SMLADX(x2, c0, acc2);
 343:Drivers/CMSIS/DSP/Source/FilteringFunctions/arm_conv_partial_fast_q15.c **** 
 344:Drivers/CMSIS/DSP/Source/FilteringFunctions/arm_conv_partial_fast_q15.c ****           /* acc3 +=  x[3] * y[srcBLen - 1] + x[4] * y[srcBLen - 2] */
 345:Drivers/CMSIS/DSP/Source/FilteringFunctions/arm_conv_partial_fast_q15.c ****           acc3 = __SMLADX(x3, c0, acc3);
 346:Drivers/CMSIS/DSP/Source/FilteringFunctions/arm_conv_partial_fast_q15.c **** 
 347:Drivers/CMSIS/DSP/Source/FilteringFunctions/arm_conv_partial_fast_q15.c ****           /* Read y[srcBLen - 3] and y[srcBLen - 4] */
 348:Drivers/CMSIS/DSP/Source/FilteringFunctions/arm_conv_partial_fast_q15.c ****         c0 = *__SIMD32(py)--;
 349:Drivers/CMSIS/DSP/Source/FilteringFunctions/arm_conv_partial_fast_q15.c **** 
 350:Drivers/CMSIS/DSP/Source/FilteringFunctions/arm_conv_partial_fast_q15.c ****           /* acc0 +=  x[2] * y[srcBLen - 3] + x[3] * y[srcBLen - 4] */
 351:Drivers/CMSIS/DSP/Source/FilteringFunctions/arm_conv_partial_fast_q15.c ****           acc0 = __SMLADX(x2, c0, acc0);
 352:Drivers/CMSIS/DSP/Source/FilteringFunctions/arm_conv_partial_fast_q15.c **** 
 353:Drivers/CMSIS/DSP/Source/FilteringFunctions/arm_conv_partial_fast_q15.c ****           /* acc1 +=  x[3] * y[srcBLen - 3] + x[4] * y[srcBLen - 4] */
 354:Drivers/CMSIS/DSP/Source/FilteringFunctions/arm_conv_partial_fast_q15.c ****           acc1 = __SMLADX(x3, c0, acc1);
 355:Drivers/CMSIS/DSP/Source/FilteringFunctions/arm_conv_partial_fast_q15.c **** 
 356:Drivers/CMSIS/DSP/Source/FilteringFunctions/arm_conv_partial_fast_q15.c ****           /* Read x[4], x[5] */
 357:Drivers/CMSIS/DSP/Source/FilteringFunctions/arm_conv_partial_fast_q15.c ****         x0 = _SIMD32_OFFSET(px+2);
 358:Drivers/CMSIS/DSP/Source/FilteringFunctions/arm_conv_partial_fast_q15.c **** 
 359:Drivers/CMSIS/DSP/Source/FilteringFunctions/arm_conv_partial_fast_q15.c ****           /* Read x[5], x[6] */
 360:Drivers/CMSIS/DSP/Source/FilteringFunctions/arm_conv_partial_fast_q15.c ****         x1 = _SIMD32_OFFSET(px+3);
 361:Drivers/CMSIS/DSP/Source/FilteringFunctions/arm_conv_partial_fast_q15.c **** 		px += 4U;
 362:Drivers/CMSIS/DSP/Source/FilteringFunctions/arm_conv_partial_fast_q15.c **** 
 363:Drivers/CMSIS/DSP/Source/FilteringFunctions/arm_conv_partial_fast_q15.c ****           /* acc2 +=  x[4] * y[srcBLen - 3] + x[5] * y[srcBLen - 4] */
 364:Drivers/CMSIS/DSP/Source/FilteringFunctions/arm_conv_partial_fast_q15.c ****           acc2 = __SMLADX(x0, c0, acc2);
 365:Drivers/CMSIS/DSP/Source/FilteringFunctions/arm_conv_partial_fast_q15.c **** 
 366:Drivers/CMSIS/DSP/Source/FilteringFunctions/arm_conv_partial_fast_q15.c ****           /* acc3 +=  x[5] * y[srcBLen - 3] + x[6] * y[srcBLen - 4] */
 367:Drivers/CMSIS/DSP/Source/FilteringFunctions/arm_conv_partial_fast_q15.c ****           acc3 = __SMLADX(x1, c0, acc3);
 368:Drivers/CMSIS/DSP/Source/FilteringFunctions/arm_conv_partial_fast_q15.c **** 
 369:Drivers/CMSIS/DSP/Source/FilteringFunctions/arm_conv_partial_fast_q15.c ****         } while (--k);
 370:Drivers/CMSIS/DSP/Source/FilteringFunctions/arm_conv_partial_fast_q15.c **** 
 371:Drivers/CMSIS/DSP/Source/FilteringFunctions/arm_conv_partial_fast_q15.c ****         /* For the next MAC operations, SIMD is not used
 372:Drivers/CMSIS/DSP/Source/FilteringFunctions/arm_conv_partial_fast_q15.c ****          * So, the 16 bit pointer if inputB, py is updated */
 373:Drivers/CMSIS/DSP/Source/FilteringFunctions/arm_conv_partial_fast_q15.c **** 
 374:Drivers/CMSIS/DSP/Source/FilteringFunctions/arm_conv_partial_fast_q15.c ****         /* If the srcBLen is not a multiple of 4, compute any remaining MACs here.
 375:Drivers/CMSIS/DSP/Source/FilteringFunctions/arm_conv_partial_fast_q15.c ****          ** No loop unrolling is used. */
 376:Drivers/CMSIS/DSP/Source/FilteringFunctions/arm_conv_partial_fast_q15.c ****         k = srcBLen % 0x4U;
 377:Drivers/CMSIS/DSP/Source/FilteringFunctions/arm_conv_partial_fast_q15.c **** 
 378:Drivers/CMSIS/DSP/Source/FilteringFunctions/arm_conv_partial_fast_q15.c ****         if (k == 1U)
 379:Drivers/CMSIS/DSP/Source/FilteringFunctions/arm_conv_partial_fast_q15.c ****         {
 380:Drivers/CMSIS/DSP/Source/FilteringFunctions/arm_conv_partial_fast_q15.c ****           /* Read y[srcBLen - 5] */
 381:Drivers/CMSIS/DSP/Source/FilteringFunctions/arm_conv_partial_fast_q15.c ****         c0 = *(py+1);
 500              		.loc 1 381 9 is_stmt 1 view .LVU174
 501              		.loc 1 381 14 is_stmt 0 view .LVU175
 502 0180 39F906CC 		ldrsh	ip, [r9, #-6]
 503              	.LVL71:
 382:Drivers/CMSIS/DSP/Source/FilteringFunctions/arm_conv_partial_fast_q15.c **** #ifdef  ARM_MATH_BIG_ENDIAN
 383:Drivers/CMSIS/DSP/Source/FilteringFunctions/arm_conv_partial_fast_q15.c **** 
 384:Drivers/CMSIS/DSP/Source/FilteringFunctions/arm_conv_partial_fast_q15.c ****         c0 = c0 << 16U;
 385:Drivers/CMSIS/DSP/Source/FilteringFunctions/arm_conv_partial_fast_q15.c **** 
 386:Drivers/CMSIS/DSP/Source/FilteringFunctions/arm_conv_partial_fast_q15.c **** #else
 387:Drivers/CMSIS/DSP/Source/FilteringFunctions/arm_conv_partial_fast_q15.c **** 
 388:Drivers/CMSIS/DSP/Source/FilteringFunctions/arm_conv_partial_fast_q15.c ****         c0 = c0 & 0x0000FFFF;
 504              		.loc 1 388 9 is_stmt 1 view .LVU176
 505              		.loc 1 388 12 is_stmt 0 view .LVU177
 506 0184 1FFA8CFC 		uxth	ip, ip
ARM GAS  C:\Users\ACER\AppData\Local\Temp\cclMZ9Th.s 			page 51


 507              	.LVL72:
 389:Drivers/CMSIS/DSP/Source/FilteringFunctions/arm_conv_partial_fast_q15.c **** 
 390:Drivers/CMSIS/DSP/Source/FilteringFunctions/arm_conv_partial_fast_q15.c **** #endif /*      #ifdef  ARM_MATH_BIG_ENDIAN     */
 391:Drivers/CMSIS/DSP/Source/FilteringFunctions/arm_conv_partial_fast_q15.c **** 
 392:Drivers/CMSIS/DSP/Source/FilteringFunctions/arm_conv_partial_fast_q15.c ****           /* Read x[7] */
 393:Drivers/CMSIS/DSP/Source/FilteringFunctions/arm_conv_partial_fast_q15.c ****         x3 = *__SIMD32(px);
 508              		.loc 1 393 9 is_stmt 1 view .LVU178
 509              		.loc 1 393 12 is_stmt 0 view .LVU179
 510 0188 049B     		ldr	r3, [sp, #16]
 511              	.LVL73:
 512              		.loc 1 393 12 view .LVU180
 513 018a D3F808B0 		ldr	fp, [r3, #8]
 514              	.LVL74:
 394:Drivers/CMSIS/DSP/Source/FilteringFunctions/arm_conv_partial_fast_q15.c **** 		px++;
 515              		.loc 1 394 3 is_stmt 1 view .LVU181
 516              		.loc 1 394 5 is_stmt 0 view .LVU182
 517 018e 0A33     		adds	r3, r3, #10
 518              	.LVL75:
 395:Drivers/CMSIS/DSP/Source/FilteringFunctions/arm_conv_partial_fast_q15.c **** 
 396:Drivers/CMSIS/DSP/Source/FilteringFunctions/arm_conv_partial_fast_q15.c ****           /* Perform the multiply-accumulates */
 397:Drivers/CMSIS/DSP/Source/FilteringFunctions/arm_conv_partial_fast_q15.c ****           acc0 = __SMLAD(x0, c0, acc0);
 519              		.loc 1 397 11 is_stmt 1 view .LVU183
 520              	.LBB74:
 521              	.LBI74:
1906:Drivers/CMSIS/Include/cmsis_gcc.h **** {
 522              		.loc 2 1906 31 view .LVU184
 523              	.LBB75:
1908:Drivers/CMSIS/Include/cmsis_gcc.h **** 
 524              		.loc 2 1908 3 view .LVU185
1910:Drivers/CMSIS/Include/cmsis_gcc.h ****   return(result);
 525              		.loc 2 1910 3 view .LVU186
 526 0190 039C     		ldr	r4, [sp, #12]
 527              		.syntax unified
 528              	@ 1910 "Drivers/CMSIS/Include/cmsis_gcc.h" 1
 529 0192 24FB0C00 		smlad r0, r4, ip, r0
 530              	@ 0 "" 2
 531              	.LVL76:
1911:Drivers/CMSIS/Include/cmsis_gcc.h **** }
 532              		.loc 2 1911 3 view .LVU187
1911:Drivers/CMSIS/Include/cmsis_gcc.h **** }
 533              		.loc 2 1911 3 is_stmt 0 view .LVU188
 534              		.thumb
 535              		.syntax unified
 536              	.LBE75:
 537              	.LBE74:
 538              		.loc 1 397 16 discriminator 1 view .LVU189
 539 0196 0446     		mov	r4, r0
 540              	.LVL77:
 398:Drivers/CMSIS/DSP/Source/FilteringFunctions/arm_conv_partial_fast_q15.c ****           acc1 = __SMLAD(x1, c0, acc1);
 541              		.loc 1 398 11 is_stmt 1 view .LVU190
 542              	.LBB76:
 543              	.LBI76:
1906:Drivers/CMSIS/Include/cmsis_gcc.h **** {
 544              		.loc 2 1906 31 view .LVU191
 545              	.LBB77:
1908:Drivers/CMSIS/Include/cmsis_gcc.h **** 
 546              		.loc 2 1908 3 view .LVU192
ARM GAS  C:\Users\ACER\AppData\Local\Temp\cclMZ9Th.s 			page 52


1910:Drivers/CMSIS/Include/cmsis_gcc.h ****   return(result);
 547              		.loc 2 1910 3 view .LVU193
 548 0198 0298     		ldr	r0, [sp, #8]
 549              	.LVL78:
1910:Drivers/CMSIS/Include/cmsis_gcc.h ****   return(result);
 550              		.loc 2 1910 3 is_stmt 0 view .LVU194
 551              		.syntax unified
 552              	@ 1910 "Drivers/CMSIS/Include/cmsis_gcc.h" 1
 553 019a 20FB0C11 		smlad r1, r0, ip, r1
 554              	@ 0 "" 2
 555              	.LVL79:
1911:Drivers/CMSIS/Include/cmsis_gcc.h **** }
 556              		.loc 2 1911 3 is_stmt 1 view .LVU195
1911:Drivers/CMSIS/Include/cmsis_gcc.h **** }
 557              		.loc 2 1911 3 is_stmt 0 view .LVU196
 558              		.thumb
 559              		.syntax unified
 560              	.LBE77:
 561              	.LBE76:
 562              		.loc 1 398 16 discriminator 1 view .LVU197
 563 019e 0D46     		mov	r5, r1
 564              	.LVL80:
 399:Drivers/CMSIS/DSP/Source/FilteringFunctions/arm_conv_partial_fast_q15.c ****           acc2 = __SMLADX(x1, c0, acc2);
 565              		.loc 1 399 11 is_stmt 1 view .LVU198
 566              	.LBB78:
 567              	.LBI78:
1914:Drivers/CMSIS/Include/cmsis_gcc.h **** {
 568              		.loc 2 1914 31 view .LVU199
 569              	.LBB79:
1916:Drivers/CMSIS/Include/cmsis_gcc.h **** 
 570              		.loc 2 1916 3 view .LVU200
1918:Drivers/CMSIS/Include/cmsis_gcc.h ****   return(result);
 571              		.loc 2 1918 3 view .LVU201
 572              		.syntax unified
 573              	@ 1918 "Drivers/CMSIS/Include/cmsis_gcc.h" 1
 574 01a0 20FB1CAA 		smladx r10, r0, ip, r10
 575              	@ 0 "" 2
 576              	.LVL81:
 577              		.loc 2 1919 3 view .LVU202
 578              		.loc 2 1919 3 is_stmt 0 view .LVU203
 579              		.thumb
 580              		.syntax unified
 581              	.LBE79:
 582              	.LBE78:
 583              		.loc 1 399 16 discriminator 1 view .LVU204
 584 01a4 5646     		mov	r6, r10
 585              	.LVL82:
 400:Drivers/CMSIS/DSP/Source/FilteringFunctions/arm_conv_partial_fast_q15.c ****           acc3 = __SMLADX(x3, c0, acc3);
 586              		.loc 1 400 11 is_stmt 1 view .LVU205
 587              	.LBB80:
 588              	.LBI80:
1914:Drivers/CMSIS/Include/cmsis_gcc.h **** {
 589              		.loc 2 1914 31 view .LVU206
 590              	.LBB81:
1916:Drivers/CMSIS/Include/cmsis_gcc.h **** 
 591              		.loc 2 1916 3 view .LVU207
1918:Drivers/CMSIS/Include/cmsis_gcc.h ****   return(result);
ARM GAS  C:\Users\ACER\AppData\Local\Temp\cclMZ9Th.s 			page 53


 592              		.loc 2 1918 3 view .LVU208
 593              		.syntax unified
 594              	@ 1918 "Drivers/CMSIS/Include/cmsis_gcc.h" 1
 595 01a6 2BFB1C2B 		smladx fp, fp, ip, r2
 596              	@ 0 "" 2
 597              	.LVL83:
 598              		.loc 2 1919 3 view .LVU209
 599              		.loc 2 1919 3 is_stmt 0 view .LVU210
 600              		.thumb
 601              		.syntax unified
 602 01aa 71E0     		b	.L21
 603              	.LVL84:
 604              	.L61:
 605              		.loc 2 1919 3 view .LVU211
 606              	.LBE81:
 607              	.LBE80:
 401:Drivers/CMSIS/DSP/Source/FilteringFunctions/arm_conv_partial_fast_q15.c ****         }
 402:Drivers/CMSIS/DSP/Source/FilteringFunctions/arm_conv_partial_fast_q15.c **** 
 403:Drivers/CMSIS/DSP/Source/FilteringFunctions/arm_conv_partial_fast_q15.c ****         if (k == 2U)
 404:Drivers/CMSIS/DSP/Source/FilteringFunctions/arm_conv_partial_fast_q15.c ****         {
 405:Drivers/CMSIS/DSP/Source/FilteringFunctions/arm_conv_partial_fast_q15.c ****           /* Read y[srcBLen - 5], y[srcBLen - 6] */
 406:Drivers/CMSIS/DSP/Source/FilteringFunctions/arm_conv_partial_fast_q15.c ****         c0 = _SIMD32_OFFSET(py);
 608              		.loc 1 406 9 is_stmt 1 view .LVU212
 609              		.loc 1 406 12 is_stmt 0 view .LVU213
 610 01ac 59F8082C 		ldr	r2, [r9, #-8]
 611              	.LVL85:
 407:Drivers/CMSIS/DSP/Source/FilteringFunctions/arm_conv_partial_fast_q15.c **** 
 408:Drivers/CMSIS/DSP/Source/FilteringFunctions/arm_conv_partial_fast_q15.c ****           /* Read x[7], x[8] */
 409:Drivers/CMSIS/DSP/Source/FilteringFunctions/arm_conv_partial_fast_q15.c ****         x3 = *__SIMD32(px);
 612              		.loc 1 409 9 is_stmt 1 view .LVU214
 613              		.loc 1 409 12 is_stmt 0 view .LVU215
 614 01b0 1868     		ldr	r0, [r3]
 615              	.LVL86:
 410:Drivers/CMSIS/DSP/Source/FilteringFunctions/arm_conv_partial_fast_q15.c **** 
 411:Drivers/CMSIS/DSP/Source/FilteringFunctions/arm_conv_partial_fast_q15.c ****         /* Read x[9] */
 412:Drivers/CMSIS/DSP/Source/FilteringFunctions/arm_conv_partial_fast_q15.c ****         x2 = _SIMD32_OFFSET(px+1);
 616              		.loc 1 412 9 is_stmt 1 view .LVU216
 617              		.loc 1 412 12 is_stmt 0 view .LVU217
 618 01b2 D3F802C0 		ldr	ip, [r3, #2]
 619              	.LVL87:
 413:Drivers/CMSIS/DSP/Source/FilteringFunctions/arm_conv_partial_fast_q15.c **** 		px += 2U;
 620              		.loc 1 413 3 is_stmt 1 view .LVU218
 621              		.loc 1 413 6 is_stmt 0 view .LVU219
 622 01b6 0433     		adds	r3, r3, #4
 623              	.LVL88:
 414:Drivers/CMSIS/DSP/Source/FilteringFunctions/arm_conv_partial_fast_q15.c **** 
 415:Drivers/CMSIS/DSP/Source/FilteringFunctions/arm_conv_partial_fast_q15.c ****           /* Perform the multiply-accumulates */
 416:Drivers/CMSIS/DSP/Source/FilteringFunctions/arm_conv_partial_fast_q15.c ****           acc0 = __SMLADX(x0, c0, acc0);
 624              		.loc 1 416 11 is_stmt 1 view .LVU220
 625              	.LBB82:
 626              	.LBI82:
1914:Drivers/CMSIS/Include/cmsis_gcc.h **** {
 627              		.loc 2 1914 31 view .LVU221
 628              	.LBB83:
1916:Drivers/CMSIS/Include/cmsis_gcc.h **** 
 629              		.loc 2 1916 3 view .LVU222
1918:Drivers/CMSIS/Include/cmsis_gcc.h ****   return(result);
ARM GAS  C:\Users\ACER\AppData\Local\Temp\cclMZ9Th.s 			page 54


 630              		.loc 2 1918 3 view .LVU223
 631 01b8 0399     		ldr	r1, [sp, #12]
 632              		.syntax unified
 633              	@ 1918 "Drivers/CMSIS/Include/cmsis_gcc.h" 1
 634 01ba 21FB1244 		smladx r4, r1, r2, r4
 635              	@ 0 "" 2
 636              	.LVL89:
 637              		.loc 2 1919 3 view .LVU224
 638              		.loc 2 1919 3 is_stmt 0 view .LVU225
 639              		.thumb
 640              		.syntax unified
 641              	.LBE83:
 642              	.LBE82:
 417:Drivers/CMSIS/DSP/Source/FilteringFunctions/arm_conv_partial_fast_q15.c ****           acc1 = __SMLADX(x1, c0, acc1);
 643              		.loc 1 417 11 is_stmt 1 view .LVU226
 644              	.LBB84:
 645              	.LBI84:
1914:Drivers/CMSIS/Include/cmsis_gcc.h **** {
 646              		.loc 2 1914 31 view .LVU227
 647              	.LBB85:
1916:Drivers/CMSIS/Include/cmsis_gcc.h **** 
 648              		.loc 2 1916 3 view .LVU228
1918:Drivers/CMSIS/Include/cmsis_gcc.h ****   return(result);
 649              		.loc 2 1918 3 view .LVU229
 650 01be 0299     		ldr	r1, [sp, #8]
 651              		.syntax unified
 652              	@ 1918 "Drivers/CMSIS/Include/cmsis_gcc.h" 1
 653 01c0 21FB1255 		smladx r5, r1, r2, r5
 654              	@ 0 "" 2
 655              	.LVL90:
 656              		.loc 2 1919 3 view .LVU230
 657              		.loc 2 1919 3 is_stmt 0 view .LVU231
 658              		.thumb
 659              		.syntax unified
 660              	.LBE85:
 661              	.LBE84:
 418:Drivers/CMSIS/DSP/Source/FilteringFunctions/arm_conv_partial_fast_q15.c ****           acc2 = __SMLADX(x3, c0, acc2);
 662              		.loc 1 418 11 is_stmt 1 view .LVU232
 663              	.LBB86:
 664              	.LBI86:
1914:Drivers/CMSIS/Include/cmsis_gcc.h **** {
 665              		.loc 2 1914 31 view .LVU233
 666              	.LBB87:
1916:Drivers/CMSIS/Include/cmsis_gcc.h **** 
 667              		.loc 2 1916 3 view .LVU234
1918:Drivers/CMSIS/Include/cmsis_gcc.h ****   return(result);
 668              		.loc 2 1918 3 view .LVU235
 669              		.syntax unified
 670              	@ 1918 "Drivers/CMSIS/Include/cmsis_gcc.h" 1
 671 01c4 20FB1260 		smladx r0, r0, r2, r6
 672              	@ 0 "" 2
 673              	.LVL91:
 674              		.loc 2 1919 3 view .LVU236
 675              		.loc 2 1919 3 is_stmt 0 view .LVU237
 676              		.thumb
 677              		.syntax unified
 678              	.LBE87:
ARM GAS  C:\Users\ACER\AppData\Local\Temp\cclMZ9Th.s 			page 55


 679              	.LBE86:
 680              		.loc 1 418 16 discriminator 1 view .LVU238
 681 01c8 0646     		mov	r6, r0
 682              	.LVL92:
 419:Drivers/CMSIS/DSP/Source/FilteringFunctions/arm_conv_partial_fast_q15.c ****           acc3 = __SMLADX(x2, c0, acc3);
 683              		.loc 1 419 11 is_stmt 1 view .LVU239
 684              	.LBB88:
 685              	.LBI88:
1914:Drivers/CMSIS/Include/cmsis_gcc.h **** {
 686              		.loc 2 1914 31 view .LVU240
 687              	.LBB89:
1916:Drivers/CMSIS/Include/cmsis_gcc.h **** 
 688              		.loc 2 1916 3 view .LVU241
1918:Drivers/CMSIS/Include/cmsis_gcc.h ****   return(result);
 689              		.loc 2 1918 3 view .LVU242
 690              		.syntax unified
 691              	@ 1918 "Drivers/CMSIS/Include/cmsis_gcc.h" 1
 692 01ca 2CFB12B1 		smladx r1, ip, r2, fp
 693              	@ 0 "" 2
 694              	.LVL93:
 695              		.loc 2 1919 3 view .LVU243
 696              		.loc 2 1919 3 is_stmt 0 view .LVU244
 697              		.thumb
 698              		.syntax unified
 699              	.LBE89:
 700              	.LBE88:
 701              		.loc 1 419 16 discriminator 1 view .LVU245
 702 01ce 8B46     		mov	fp, r1
 703              	.LVL94:
 704              		.loc 1 419 16 discriminator 1 view .LVU246
 705 01d0 60E0     		b	.L22
 706              	.LVL95:
 707              	.L23:
 420:Drivers/CMSIS/DSP/Source/FilteringFunctions/arm_conv_partial_fast_q15.c ****         }
 421:Drivers/CMSIS/DSP/Source/FilteringFunctions/arm_conv_partial_fast_q15.c **** 
 422:Drivers/CMSIS/DSP/Source/FilteringFunctions/arm_conv_partial_fast_q15.c ****         if (k == 3U)
 423:Drivers/CMSIS/DSP/Source/FilteringFunctions/arm_conv_partial_fast_q15.c ****         {
 424:Drivers/CMSIS/DSP/Source/FilteringFunctions/arm_conv_partial_fast_q15.c ****           /* Read y[srcBLen - 5], y[srcBLen - 6] */
 425:Drivers/CMSIS/DSP/Source/FilteringFunctions/arm_conv_partial_fast_q15.c ****         c0 = _SIMD32_OFFSET(py);
 426:Drivers/CMSIS/DSP/Source/FilteringFunctions/arm_conv_partial_fast_q15.c **** 
 427:Drivers/CMSIS/DSP/Source/FilteringFunctions/arm_conv_partial_fast_q15.c ****           /* Read x[7], x[8] */
 428:Drivers/CMSIS/DSP/Source/FilteringFunctions/arm_conv_partial_fast_q15.c ****         x3 = *__SIMD32(px);
 429:Drivers/CMSIS/DSP/Source/FilteringFunctions/arm_conv_partial_fast_q15.c **** 
 430:Drivers/CMSIS/DSP/Source/FilteringFunctions/arm_conv_partial_fast_q15.c ****           /* Read x[9] */
 431:Drivers/CMSIS/DSP/Source/FilteringFunctions/arm_conv_partial_fast_q15.c ****         x2 = _SIMD32_OFFSET(px+1);
 432:Drivers/CMSIS/DSP/Source/FilteringFunctions/arm_conv_partial_fast_q15.c **** 
 433:Drivers/CMSIS/DSP/Source/FilteringFunctions/arm_conv_partial_fast_q15.c ****           /* Perform the multiply-accumulates */
 434:Drivers/CMSIS/DSP/Source/FilteringFunctions/arm_conv_partial_fast_q15.c ****           acc0 = __SMLADX(x0, c0, acc0);
 435:Drivers/CMSIS/DSP/Source/FilteringFunctions/arm_conv_partial_fast_q15.c ****           acc1 = __SMLADX(x1, c0, acc1);
 436:Drivers/CMSIS/DSP/Source/FilteringFunctions/arm_conv_partial_fast_q15.c ****           acc2 = __SMLADX(x3, c0, acc2);
 437:Drivers/CMSIS/DSP/Source/FilteringFunctions/arm_conv_partial_fast_q15.c ****           acc3 = __SMLADX(x2, c0, acc3);
 438:Drivers/CMSIS/DSP/Source/FilteringFunctions/arm_conv_partial_fast_q15.c **** 
 439:Drivers/CMSIS/DSP/Source/FilteringFunctions/arm_conv_partial_fast_q15.c **** 		c0 = *(py-1);
 440:Drivers/CMSIS/DSP/Source/FilteringFunctions/arm_conv_partial_fast_q15.c **** #ifdef  ARM_MATH_BIG_ENDIAN
 441:Drivers/CMSIS/DSP/Source/FilteringFunctions/arm_conv_partial_fast_q15.c **** 
 442:Drivers/CMSIS/DSP/Source/FilteringFunctions/arm_conv_partial_fast_q15.c ****         c0 = c0 << 16U;
 443:Drivers/CMSIS/DSP/Source/FilteringFunctions/arm_conv_partial_fast_q15.c **** #else
ARM GAS  C:\Users\ACER\AppData\Local\Temp\cclMZ9Th.s 			page 56


 444:Drivers/CMSIS/DSP/Source/FilteringFunctions/arm_conv_partial_fast_q15.c **** 
 445:Drivers/CMSIS/DSP/Source/FilteringFunctions/arm_conv_partial_fast_q15.c ****         c0 = c0 & 0x0000FFFF;
 446:Drivers/CMSIS/DSP/Source/FilteringFunctions/arm_conv_partial_fast_q15.c **** #endif /*      #ifdef  ARM_MATH_BIG_ENDIAN     */
 447:Drivers/CMSIS/DSP/Source/FilteringFunctions/arm_conv_partial_fast_q15.c **** 
 448:Drivers/CMSIS/DSP/Source/FilteringFunctions/arm_conv_partial_fast_q15.c ****           /* Read x[10] */
 449:Drivers/CMSIS/DSP/Source/FilteringFunctions/arm_conv_partial_fast_q15.c ****         x3 =  _SIMD32_OFFSET(px+2);
 450:Drivers/CMSIS/DSP/Source/FilteringFunctions/arm_conv_partial_fast_q15.c **** 		px += 3U;
 451:Drivers/CMSIS/DSP/Source/FilteringFunctions/arm_conv_partial_fast_q15.c **** 
 452:Drivers/CMSIS/DSP/Source/FilteringFunctions/arm_conv_partial_fast_q15.c ****           /* Perform the multiply-accumulates */
 453:Drivers/CMSIS/DSP/Source/FilteringFunctions/arm_conv_partial_fast_q15.c ****           acc0 = __SMLADX(x1, c0, acc0);
 454:Drivers/CMSIS/DSP/Source/FilteringFunctions/arm_conv_partial_fast_q15.c ****           acc1 = __SMLAD(x2, c0, acc1);
 455:Drivers/CMSIS/DSP/Source/FilteringFunctions/arm_conv_partial_fast_q15.c ****           acc2 = __SMLADX(x2, c0, acc2);
 456:Drivers/CMSIS/DSP/Source/FilteringFunctions/arm_conv_partial_fast_q15.c ****           acc3 = __SMLADX(x3, c0, acc3);
 457:Drivers/CMSIS/DSP/Source/FilteringFunctions/arm_conv_partial_fast_q15.c ****         }
 458:Drivers/CMSIS/DSP/Source/FilteringFunctions/arm_conv_partial_fast_q15.c **** 
 459:Drivers/CMSIS/DSP/Source/FilteringFunctions/arm_conv_partial_fast_q15.c ****         /* Store the results in the accumulators in the destination buffer. */
 460:Drivers/CMSIS/DSP/Source/FilteringFunctions/arm_conv_partial_fast_q15.c **** #ifndef ARM_MATH_BIG_ENDIAN
 461:Drivers/CMSIS/DSP/Source/FilteringFunctions/arm_conv_partial_fast_q15.c **** 
 462:Drivers/CMSIS/DSP/Source/FilteringFunctions/arm_conv_partial_fast_q15.c ****         *__SIMD32(pOut)++ = __PKHBT(acc0 >> 15, acc1 >> 15, 16);
 708              		.loc 1 462 9 is_stmt 1 view .LVU247
 709              		.loc 1 462 29 is_stmt 0 view .LVU248
 710 01d2 ED13     		asrs	r5, r5, #15
 711              	.LVL96:
 712              		.loc 1 462 29 view .LVU249
 713 01d4 C4F3CF34 		ubfx	r4, r4, #15, #16
 714              	.LVL97:
 715              		.loc 1 462 29 view .LVU250
 716 01d8 44EA0544 		orr	r4, r4, r5, lsl #16
 717              		.loc 1 462 27 view .LVU251
 718 01dc 019B     		ldr	r3, [sp, #4]
 719 01de 1A46     		mov	r2, r3
 720 01e0 42F8084B 		str	r4, [r2], #8
 463:Drivers/CMSIS/DSP/Source/FilteringFunctions/arm_conv_partial_fast_q15.c ****         *__SIMD32(pOut)++ = __PKHBT(acc2 >> 15, acc3 >> 15, 16);
 721              		.loc 1 463 9 is_stmt 1 view .LVU252
 722              		.loc 1 463 29 is_stmt 0 view .LVU253
 723 01e4 4FEAEB3B 		asr	fp, fp, #15
 724              	.LVL98:
 725              		.loc 1 463 29 view .LVU254
 726 01e8 C6F3CF36 		ubfx	r6, r6, #15, #16
 727              	.LVL99:
 728              		.loc 1 463 29 view .LVU255
 729 01ec 46EA0B46 		orr	r6, r6, fp, lsl #16
 730              		.loc 1 463 27 view .LVU256
 731 01f0 5E60     		str	r6, [r3, #4]
 464:Drivers/CMSIS/DSP/Source/FilteringFunctions/arm_conv_partial_fast_q15.c **** 
 465:Drivers/CMSIS/DSP/Source/FilteringFunctions/arm_conv_partial_fast_q15.c **** #else
 466:Drivers/CMSIS/DSP/Source/FilteringFunctions/arm_conv_partial_fast_q15.c **** 
 467:Drivers/CMSIS/DSP/Source/FilteringFunctions/arm_conv_partial_fast_q15.c ****         *__SIMD32(pOut)++ = __PKHBT(acc1 >> 15, acc0 >> 15, 16);
 468:Drivers/CMSIS/DSP/Source/FilteringFunctions/arm_conv_partial_fast_q15.c ****         *__SIMD32(pOut)++ = __PKHBT(acc3 >> 15, acc2 >> 15, 16);
 469:Drivers/CMSIS/DSP/Source/FilteringFunctions/arm_conv_partial_fast_q15.c **** 
 470:Drivers/CMSIS/DSP/Source/FilteringFunctions/arm_conv_partial_fast_q15.c **** #endif /*      #ifndef  ARM_MATH_BIG_ENDIAN    */
 471:Drivers/CMSIS/DSP/Source/FilteringFunctions/arm_conv_partial_fast_q15.c **** 
 472:Drivers/CMSIS/DSP/Source/FilteringFunctions/arm_conv_partial_fast_q15.c ****         /* Increment the pointer pIn1 index, count by 4 */
 473:Drivers/CMSIS/DSP/Source/FilteringFunctions/arm_conv_partial_fast_q15.c ****         count += 4U;
 732              		.loc 1 473 9 is_stmt 1 view .LVU257
 733              		.loc 1 473 15 is_stmt 0 view .LVU258
 734 01f2 099B     		ldr	r3, [sp, #36]
ARM GAS  C:\Users\ACER\AppData\Local\Temp\cclMZ9Th.s 			page 57


 735 01f4 0433     		adds	r3, r3, #4
 736 01f6 0993     		str	r3, [sp, #36]
 737              	.LVL100:
 474:Drivers/CMSIS/DSP/Source/FilteringFunctions/arm_conv_partial_fast_q15.c **** 
 475:Drivers/CMSIS/DSP/Source/FilteringFunctions/arm_conv_partial_fast_q15.c ****         /* Update the inputA and inputB pointers for next MAC calculation */
 476:Drivers/CMSIS/DSP/Source/FilteringFunctions/arm_conv_partial_fast_q15.c ****         px = pIn1 + count;
 738              		.loc 1 476 9 is_stmt 1 view .LVU259
 739              		.loc 1 476 19 is_stmt 0 view .LVU260
 740 01f8 0599     		ldr	r1, [sp, #20]
 741 01fa 01EB4303 		add	r3, r1, r3, lsl #1
 742              	.LVL101:
 477:Drivers/CMSIS/DSP/Source/FilteringFunctions/arm_conv_partial_fast_q15.c ****         py = pSrc2;
 743              		.loc 1 477 9 is_stmt 1 view .LVU261
 478:Drivers/CMSIS/DSP/Source/FilteringFunctions/arm_conv_partial_fast_q15.c **** 
 479:Drivers/CMSIS/DSP/Source/FilteringFunctions/arm_conv_partial_fast_q15.c ****         /* Decrement the loop counter */
 480:Drivers/CMSIS/DSP/Source/FilteringFunctions/arm_conv_partial_fast_q15.c ****         blkCnt--;
 744              		.loc 1 480 9 view .LVU262
 745              		.loc 1 480 15 is_stmt 0 view .LVU263
 746 01fe 0899     		ldr	r1, [sp, #32]
 747 0200 0139     		subs	r1, r1, #1
 748 0202 0891     		str	r1, [sp, #32]
 749              	.LVL102:
 463:Drivers/CMSIS/DSP/Source/FilteringFunctions/arm_conv_partial_fast_q15.c **** 
 750              		.loc 1 463 24 view .LVU264
 751 0204 0192     		str	r2, [sp, #4]
 752              	.LVL103:
 753              	.L19:
 300:Drivers/CMSIS/DSP/Source/FilteringFunctions/arm_conv_partial_fast_q15.c ****       {
 754              		.loc 1 300 21 is_stmt 1 view .LVU265
 755 0206 089A     		ldr	r2, [sp, #32]
 756 0208 002A     		cmp	r2, #0
 757 020a 63D0     		beq	.L59
 302:Drivers/CMSIS/DSP/Source/FilteringFunctions/arm_conv_partial_fast_q15.c **** 
 758              		.loc 1 302 7 view .LVU266
 302:Drivers/CMSIS/DSP/Source/FilteringFunctions/arm_conv_partial_fast_q15.c **** 
 759              		.loc 1 302 15 is_stmt 0 view .LVU267
 760 020c 069A     		ldr	r2, [sp, #24]
 761 020e A2F1020E 		sub	lr, r2, #2
 762              	.LVL104:
 305:Drivers/CMSIS/DSP/Source/FilteringFunctions/arm_conv_partial_fast_q15.c ****         acc1 = 0;
 763              		.loc 1 305 9 is_stmt 1 view .LVU268
 306:Drivers/CMSIS/DSP/Source/FilteringFunctions/arm_conv_partial_fast_q15.c ****         acc2 = 0;
 764              		.loc 1 306 9 view .LVU269
 307:Drivers/CMSIS/DSP/Source/FilteringFunctions/arm_conv_partial_fast_q15.c ****         acc3 = 0;
 765              		.loc 1 307 9 view .LVU270
 308:Drivers/CMSIS/DSP/Source/FilteringFunctions/arm_conv_partial_fast_q15.c **** 
 766              		.loc 1 308 9 view .LVU271
 312:Drivers/CMSIS/DSP/Source/FilteringFunctions/arm_conv_partial_fast_q15.c ****         /* read x[1], x[2] samples */
 767              		.loc 1 312 7 view .LVU272
 312:Drivers/CMSIS/DSP/Source/FilteringFunctions/arm_conv_partial_fast_q15.c ****         /* read x[1], x[2] samples */
 768              		.loc 1 312 10 is_stmt 0 view .LVU273
 769 0212 D3F800C0 		ldr	ip, [r3]
 770              	.LVL105:
 314:Drivers/CMSIS/DSP/Source/FilteringFunctions/arm_conv_partial_fast_q15.c **** 	  px+= 2U;
 771              		.loc 1 314 7 is_stmt 1 view .LVU274
 314:Drivers/CMSIS/DSP/Source/FilteringFunctions/arm_conv_partial_fast_q15.c **** 	  px+= 2U;
 772              		.loc 1 314 10 is_stmt 0 view .LVU275
ARM GAS  C:\Users\ACER\AppData\Local\Temp\cclMZ9Th.s 			page 58


 773 0216 D3F80270 		ldr	r7, [r3, #2]
 774              	.LVL106:
 315:Drivers/CMSIS/DSP/Source/FilteringFunctions/arm_conv_partial_fast_q15.c **** 
 775              		.loc 1 315 4 is_stmt 1 view .LVU276
 315:Drivers/CMSIS/DSP/Source/FilteringFunctions/arm_conv_partial_fast_q15.c **** 
 776              		.loc 1 315 6 is_stmt 0 view .LVU277
 777 021a 0433     		adds	r3, r3, #4
 778              	.LVL107:
 319:Drivers/CMSIS/DSP/Source/FilteringFunctions/arm_conv_partial_fast_q15.c **** 
 779              		.loc 1 319 9 is_stmt 1 view .LVU278
 319:Drivers/CMSIS/DSP/Source/FilteringFunctions/arm_conv_partial_fast_q15.c **** 
 780              		.loc 1 319 11 is_stmt 0 view .LVU279
 781 021c 079A     		ldr	r2, [sp, #28]
 782 021e 4FEA9208 		lsr	r8, r2, #2
 783              	.LVL108:
 308:Drivers/CMSIS/DSP/Source/FilteringFunctions/arm_conv_partial_fast_q15.c **** 
 784              		.loc 1 308 14 view .LVU280
 785 0222 4FF0000B 		mov	fp, #0
 306:Drivers/CMSIS/DSP/Source/FilteringFunctions/arm_conv_partial_fast_q15.c ****         acc2 = 0;
 786              		.loc 1 306 14 view .LVU281
 787 0226 5D46     		mov	r5, fp
 305:Drivers/CMSIS/DSP/Source/FilteringFunctions/arm_conv_partial_fast_q15.c ****         acc1 = 0;
 788              		.loc 1 305 14 view .LVU282
 789 0228 5C46     		mov	r4, fp
 790 022a 3A46     		mov	r2, r7
 791 022c 6746     		mov	r7, ip
 792              	.LVL109:
 305:Drivers/CMSIS/DSP/Source/FilteringFunctions/arm_conv_partial_fast_q15.c ****         acc1 = 0;
 793              		.loc 1 305 14 view .LVU283
 794 022e DC46     		mov	ip, fp
 795              	.LVL110:
 305:Drivers/CMSIS/DSP/Source/FilteringFunctions/arm_conv_partial_fast_q15.c ****         acc1 = 0;
 796              		.loc 1 305 14 view .LVU284
 797 0230 1646     		mov	r6, r2
 798              	.LVL111:
 799              	.L20:
 323:Drivers/CMSIS/DSP/Source/FilteringFunctions/arm_conv_partial_fast_q15.c ****         {
 800              		.loc 1 323 9 is_stmt 1 view .LVU285
 327:Drivers/CMSIS/DSP/Source/FilteringFunctions/arm_conv_partial_fast_q15.c **** 
 801              		.loc 1 327 9 view .LVU286
 327:Drivers/CMSIS/DSP/Source/FilteringFunctions/arm_conv_partial_fast_q15.c **** 
 802              		.loc 1 327 12 is_stmt 0 view .LVU287
 803 0232 DEF80020 		ldr	r2, [lr]
 804              	.LVL112:
 330:Drivers/CMSIS/DSP/Source/FilteringFunctions/arm_conv_partial_fast_q15.c **** 
 805              		.loc 1 330 11 is_stmt 1 view .LVU288
 806              	.LBB90:
 807              	.LBI90:
1914:Drivers/CMSIS/Include/cmsis_gcc.h **** {
 808              		.loc 2 1914 31 view .LVU289
 809              	.LBB91:
1916:Drivers/CMSIS/Include/cmsis_gcc.h **** 
 810              		.loc 2 1916 3 view .LVU290
1918:Drivers/CMSIS/Include/cmsis_gcc.h ****   return(result);
 811              		.loc 2 1918 3 view .LVU291
 812              		.syntax unified
 813              	@ 1918 "Drivers/CMSIS/Include/cmsis_gcc.h" 1
ARM GAS  C:\Users\ACER\AppData\Local\Temp\cclMZ9Th.s 			page 59


 814 0236 27FB1244 		smladx r4, r7, r2, r4
 815              	@ 0 "" 2
 816              	.LVL113:
 817              		.loc 2 1919 3 view .LVU292
 818              		.loc 2 1919 3 is_stmt 0 view .LVU293
 819              		.thumb
 820              		.syntax unified
 821              	.LBE91:
 822              	.LBE90:
 333:Drivers/CMSIS/DSP/Source/FilteringFunctions/arm_conv_partial_fast_q15.c **** 
 823              		.loc 1 333 11 is_stmt 1 view .LVU294
 824              	.LBB92:
 825              	.LBI92:
1914:Drivers/CMSIS/Include/cmsis_gcc.h **** {
 826              		.loc 2 1914 31 view .LVU295
 827              	.LBB93:
1916:Drivers/CMSIS/Include/cmsis_gcc.h **** 
 828              		.loc 2 1916 3 view .LVU296
1918:Drivers/CMSIS/Include/cmsis_gcc.h ****   return(result);
 829              		.loc 2 1918 3 view .LVU297
 830              		.syntax unified
 831              	@ 1918 "Drivers/CMSIS/Include/cmsis_gcc.h" 1
 832 023a 26FB1255 		smladx r5, r6, r2, r5
 833              	@ 0 "" 2
 834              	.LVL114:
 835              		.loc 2 1919 3 view .LVU298
 836              		.loc 2 1919 3 is_stmt 0 view .LVU299
 837              		.thumb
 838              		.syntax unified
 839              	.LBE93:
 840              	.LBE92:
 336:Drivers/CMSIS/DSP/Source/FilteringFunctions/arm_conv_partial_fast_q15.c **** 
 841              		.loc 1 336 9 is_stmt 1 view .LVU300
 336:Drivers/CMSIS/DSP/Source/FilteringFunctions/arm_conv_partial_fast_q15.c **** 
 842              		.loc 1 336 12 is_stmt 0 view .LVU301
 843 023e 1868     		ldr	r0, [r3]
 844              	.LVL115:
 339:Drivers/CMSIS/DSP/Source/FilteringFunctions/arm_conv_partial_fast_q15.c **** 
 845              		.loc 1 339 9 is_stmt 1 view .LVU302
 339:Drivers/CMSIS/DSP/Source/FilteringFunctions/arm_conv_partial_fast_q15.c **** 
 846              		.loc 1 339 12 is_stmt 0 view .LVU303
 847 0240 D3F80210 		ldr	r1, [r3, #2]
 848              	.LVL116:
 342:Drivers/CMSIS/DSP/Source/FilteringFunctions/arm_conv_partial_fast_q15.c **** 
 849              		.loc 1 342 11 is_stmt 1 view .LVU304
 850              	.LBB94:
 851              	.LBI94:
1914:Drivers/CMSIS/Include/cmsis_gcc.h **** {
 852              		.loc 2 1914 31 view .LVU305
 853              	.LBB95:
1916:Drivers/CMSIS/Include/cmsis_gcc.h **** 
 854              		.loc 2 1916 3 view .LVU306
1918:Drivers/CMSIS/Include/cmsis_gcc.h ****   return(result);
 855              		.loc 2 1918 3 view .LVU307
 856              		.syntax unified
 857              	@ 1918 "Drivers/CMSIS/Include/cmsis_gcc.h" 1
 858 0244 20FB12CA 		smladx r10, r0, r2, ip
ARM GAS  C:\Users\ACER\AppData\Local\Temp\cclMZ9Th.s 			page 60


 859              	@ 0 "" 2
 860              	.LVL117:
 861              		.loc 2 1919 3 view .LVU308
 862              		.loc 2 1919 3 is_stmt 0 view .LVU309
 863              		.thumb
 864              		.syntax unified
 865              	.LBE95:
 866              	.LBE94:
 345:Drivers/CMSIS/DSP/Source/FilteringFunctions/arm_conv_partial_fast_q15.c **** 
 867              		.loc 1 345 11 is_stmt 1 view .LVU310
 868              	.LBB96:
 869              	.LBI96:
1914:Drivers/CMSIS/Include/cmsis_gcc.h **** {
 870              		.loc 2 1914 31 view .LVU311
 871              	.LBB97:
1916:Drivers/CMSIS/Include/cmsis_gcc.h **** 
 872              		.loc 2 1916 3 view .LVU312
1918:Drivers/CMSIS/Include/cmsis_gcc.h ****   return(result);
 873              		.loc 2 1918 3 view .LVU313
 874              		.syntax unified
 875              	@ 1918 "Drivers/CMSIS/Include/cmsis_gcc.h" 1
 876 0248 21FB12BB 		smladx fp, r1, r2, fp
 877              	@ 0 "" 2
 878              	.LVL118:
 879              		.loc 2 1919 3 view .LVU314
 880              		.loc 2 1919 3 is_stmt 0 view .LVU315
 881              		.thumb
 882              		.syntax unified
 883              	.LBE97:
 884              	.LBE96:
 348:Drivers/CMSIS/DSP/Source/FilteringFunctions/arm_conv_partial_fast_q15.c **** 
 885              		.loc 1 348 9 is_stmt 1 view .LVU316
 886 024c F146     		mov	r9, lr
 348:Drivers/CMSIS/DSP/Source/FilteringFunctions/arm_conv_partial_fast_q15.c **** 
 887              		.loc 1 348 27 is_stmt 0 view .LVU317
 888 024e AEF1080E 		sub	lr, lr, #8
 889              	.LVL119:
 348:Drivers/CMSIS/DSP/Source/FilteringFunctions/arm_conv_partial_fast_q15.c **** 
 890              		.loc 1 348 12 view .LVU318
 891 0252 59F8042C 		ldr	r2, [r9, #-4]
 892              	.LVL120:
 351:Drivers/CMSIS/DSP/Source/FilteringFunctions/arm_conv_partial_fast_q15.c **** 
 893              		.loc 1 351 11 is_stmt 1 view .LVU319
 894              	.LBB98:
 895              	.LBI98:
1914:Drivers/CMSIS/Include/cmsis_gcc.h **** {
 896              		.loc 2 1914 31 view .LVU320
 897              	.LBB99:
1916:Drivers/CMSIS/Include/cmsis_gcc.h **** 
 898              		.loc 2 1916 3 view .LVU321
1918:Drivers/CMSIS/Include/cmsis_gcc.h ****   return(result);
 899              		.loc 2 1918 3 view .LVU322
 900              		.syntax unified
 901              	@ 1918 "Drivers/CMSIS/Include/cmsis_gcc.h" 1
 902 0256 20FB1240 		smladx r0, r0, r2, r4
 903              	@ 0 "" 2
 904              	.LVL121:
ARM GAS  C:\Users\ACER\AppData\Local\Temp\cclMZ9Th.s 			page 61


 905              		.loc 2 1919 3 view .LVU323
 906              		.loc 2 1919 3 is_stmt 0 view .LVU324
 907              		.thumb
 908              		.syntax unified
 909              	.LBE99:
 910              	.LBE98:
 351:Drivers/CMSIS/DSP/Source/FilteringFunctions/arm_conv_partial_fast_q15.c **** 
 911              		.loc 1 351 16 discriminator 1 view .LVU325
 912 025a 0446     		mov	r4, r0
 913              	.LVL122:
 354:Drivers/CMSIS/DSP/Source/FilteringFunctions/arm_conv_partial_fast_q15.c **** 
 914              		.loc 1 354 11 is_stmt 1 view .LVU326
 915              	.LBB100:
 916              	.LBI100:
1914:Drivers/CMSIS/Include/cmsis_gcc.h **** {
 917              		.loc 2 1914 31 view .LVU327
 918              	.LBB101:
1916:Drivers/CMSIS/Include/cmsis_gcc.h **** 
 919              		.loc 2 1916 3 view .LVU328
1918:Drivers/CMSIS/Include/cmsis_gcc.h ****   return(result);
 920              		.loc 2 1918 3 view .LVU329
 921              		.syntax unified
 922              	@ 1918 "Drivers/CMSIS/Include/cmsis_gcc.h" 1
 923 025c 21FB1251 		smladx r1, r1, r2, r5
 924              	@ 0 "" 2
 925              	.LVL123:
 926              		.loc 2 1919 3 view .LVU330
 927              		.loc 2 1919 3 is_stmt 0 view .LVU331
 928              		.thumb
 929              		.syntax unified
 930              	.LBE101:
 931              	.LBE100:
 354:Drivers/CMSIS/DSP/Source/FilteringFunctions/arm_conv_partial_fast_q15.c **** 
 932              		.loc 1 354 16 discriminator 1 view .LVU332
 933 0260 0D46     		mov	r5, r1
 934              	.LVL124:
 357:Drivers/CMSIS/DSP/Source/FilteringFunctions/arm_conv_partial_fast_q15.c **** 
 935              		.loc 1 357 9 is_stmt 1 view .LVU333
 357:Drivers/CMSIS/DSP/Source/FilteringFunctions/arm_conv_partial_fast_q15.c **** 
 936              		.loc 1 357 12 is_stmt 0 view .LVU334
 937 0262 5F68     		ldr	r7, [r3, #4]
 938              	.LVL125:
 360:Drivers/CMSIS/DSP/Source/FilteringFunctions/arm_conv_partial_fast_q15.c **** 		px += 4U;
 939              		.loc 1 360 9 is_stmt 1 view .LVU335
 360:Drivers/CMSIS/DSP/Source/FilteringFunctions/arm_conv_partial_fast_q15.c **** 		px += 4U;
 940              		.loc 1 360 12 is_stmt 0 view .LVU336
 941 0264 D3F80660 		ldr	r6, [r3, #6]
 942              	.LVL126:
 361:Drivers/CMSIS/DSP/Source/FilteringFunctions/arm_conv_partial_fast_q15.c **** 
 943              		.loc 1 361 3 is_stmt 1 view .LVU337
 944 0268 0493     		str	r3, [sp, #16]
 945              	.LVL127:
 361:Drivers/CMSIS/DSP/Source/FilteringFunctions/arm_conv_partial_fast_q15.c **** 
 946              		.loc 1 361 6 is_stmt 0 view .LVU338
 947 026a 0833     		adds	r3, r3, #8
 948              	.LVL128:
 364:Drivers/CMSIS/DSP/Source/FilteringFunctions/arm_conv_partial_fast_q15.c **** 
ARM GAS  C:\Users\ACER\AppData\Local\Temp\cclMZ9Th.s 			page 62


 949              		.loc 1 364 11 is_stmt 1 view .LVU339
 364:Drivers/CMSIS/DSP/Source/FilteringFunctions/arm_conv_partial_fast_q15.c **** 
 950              		.loc 1 364 18 is_stmt 0 view .LVU340
 951 026c 0397     		str	r7, [sp, #12]
 952              	.LVL129:
 953              	.LBB102:
 954              	.LBI102:
1914:Drivers/CMSIS/Include/cmsis_gcc.h **** {
 955              		.loc 2 1914 31 is_stmt 1 view .LVU341
 956              	.LBB103:
1916:Drivers/CMSIS/Include/cmsis_gcc.h **** 
 957              		.loc 2 1916 3 view .LVU342
1918:Drivers/CMSIS/Include/cmsis_gcc.h ****   return(result);
 958              		.loc 2 1918 3 view .LVU343
 959              		.syntax unified
 960              	@ 1918 "Drivers/CMSIS/Include/cmsis_gcc.h" 1
 961 026e 27FB12AA 		smladx r10, r7, r2, r10
 962              	@ 0 "" 2
 963              	.LVL130:
 964              		.loc 2 1919 3 view .LVU344
 965              		.loc 2 1919 3 is_stmt 0 view .LVU345
 966              		.thumb
 967              		.syntax unified
 968              	.LBE103:
 969              	.LBE102:
 364:Drivers/CMSIS/DSP/Source/FilteringFunctions/arm_conv_partial_fast_q15.c **** 
 970              		.loc 1 364 16 discriminator 1 view .LVU346
 971 0272 D446     		mov	ip, r10
 972              	.LVL131:
 367:Drivers/CMSIS/DSP/Source/FilteringFunctions/arm_conv_partial_fast_q15.c **** 
 973              		.loc 1 367 11 is_stmt 1 view .LVU347
 367:Drivers/CMSIS/DSP/Source/FilteringFunctions/arm_conv_partial_fast_q15.c **** 
 974              		.loc 1 367 18 is_stmt 0 view .LVU348
 975 0274 0296     		str	r6, [sp, #8]
 976              	.LVL132:
 977              	.LBB104:
 978              	.LBI104:
1914:Drivers/CMSIS/Include/cmsis_gcc.h **** {
 979              		.loc 2 1914 31 is_stmt 1 view .LVU349
 980              	.LBB105:
1916:Drivers/CMSIS/Include/cmsis_gcc.h **** 
 981              		.loc 2 1916 3 view .LVU350
1918:Drivers/CMSIS/Include/cmsis_gcc.h ****   return(result);
 982              		.loc 2 1918 3 view .LVU351
 983              		.syntax unified
 984              	@ 1918 "Drivers/CMSIS/Include/cmsis_gcc.h" 1
 985 0276 26FB12B2 		smladx r2, r6, r2, fp
 986              	@ 0 "" 2
 987              	.LVL133:
 988              		.loc 2 1919 3 view .LVU352
 989              		.loc 2 1919 3 is_stmt 0 view .LVU353
 990              		.thumb
 991              		.syntax unified
 992              	.LBE105:
 993              	.LBE104:
 367:Drivers/CMSIS/DSP/Source/FilteringFunctions/arm_conv_partial_fast_q15.c **** 
 994              		.loc 1 367 16 discriminator 1 view .LVU354
ARM GAS  C:\Users\ACER\AppData\Local\Temp\cclMZ9Th.s 			page 63


 995 027a 9346     		mov	fp, r2
 996              	.LVL134:
 369:Drivers/CMSIS/DSP/Source/FilteringFunctions/arm_conv_partial_fast_q15.c **** 
 997              		.loc 1 369 18 is_stmt 1 discriminator 1 view .LVU355
 369:Drivers/CMSIS/DSP/Source/FilteringFunctions/arm_conv_partial_fast_q15.c **** 
 998              		.loc 1 369 18 is_stmt 0 discriminator 1 view .LVU356
 999 027c B8F10108 		subs	r8, r8, #1
 1000              	.LVL135:
 369:Drivers/CMSIS/DSP/Source/FilteringFunctions/arm_conv_partial_fast_q15.c **** 
 1001              		.loc 1 369 18 discriminator 1 view .LVU357
 1002 0280 D7D1     		bne	.L20
 376:Drivers/CMSIS/DSP/Source/FilteringFunctions/arm_conv_partial_fast_q15.c **** 
 1003              		.loc 1 376 11 view .LVU358
 1004 0282 5646     		mov	r6, r10
 1005              	.LVL136:
 376:Drivers/CMSIS/DSP/Source/FilteringFunctions/arm_conv_partial_fast_q15.c **** 
 1006              		.loc 1 376 9 is_stmt 1 view .LVU359
 376:Drivers/CMSIS/DSP/Source/FilteringFunctions/arm_conv_partial_fast_q15.c **** 
 1007              		.loc 1 376 11 is_stmt 0 view .LVU360
 1008 0284 079F     		ldr	r7, [sp, #28]
 1009              	.LVL137:
 376:Drivers/CMSIS/DSP/Source/FilteringFunctions/arm_conv_partial_fast_q15.c **** 
 1010              		.loc 1 376 11 view .LVU361
 1011 0286 07F00307 		and	r7, r7, #3
 1012              	.LVL138:
 378:Drivers/CMSIS/DSP/Source/FilteringFunctions/arm_conv_partial_fast_q15.c ****         {
 1013              		.loc 1 378 9 is_stmt 1 view .LVU362
