ARM GAS  C:\Users\ACER\AppData\Local\Temp\ccz54j3P.s 			page 1


   1              		.cpu cortex-m4
   2              		.arch armv7e-m
   3              		.fpu fpv4-sp-d16
   4              		.eabi_attribute 27, 1
   5              		.eabi_attribute 28, 1
   6              		.eabi_attribute 20, 1
   7              		.eabi_attribute 21, 1
   8              		.eabi_attribute 23, 3
   9              		.eabi_attribute 24, 1
  10              		.eabi_attribute 25, 1
  11              		.eabi_attribute 26, 1
  12              		.eabi_attribute 30, 1
  13              		.eabi_attribute 34, 1
  14              		.eabi_attribute 18, 4
  15              		.file	"computer_communicator.c"
  16              		.text
  17              	.Ltext0:
  18              		.cfi_sections	.debug_frame
  19              		.file 1 "Core/Src/Application/Computer_Communicator/computer_communicator.c"
  20              		.section	.text.initial,"ax",%progbits
  21              		.align	1
  22              		.syntax unified
  23              		.thumb
  24              		.thumb_func
  26              	initial:
  27              	.LVL0:
  28              	.LFB168:
   1:Core/Src/Application/Computer_Communicator/computer_communicator.c **** #include "computer_communicator.h"
   2:Core/Src/Application/Computer_Communicator/computer_communicator.c **** 
   3:Core/Src/Application/Computer_Communicator/computer_communicator.c **** extern UART_HandleTypeDef huart3;
   4:Core/Src/Application/Computer_Communicator/computer_communicator.c **** extern struct StateEstimator * state_estimator;
   5:Core/Src/Application/Computer_Communicator/computer_communicator.c **** static char tx_data[15];
   6:Core/Src/Application/Computer_Communicator/computer_communicator.c **** static char rx_data[15];
   7:Core/Src/Application/Computer_Communicator/computer_communicator.c **** struct Ao * ao_computer_communicator;
   8:Core/Src/Application/Computer_Communicator/computer_communicator.c **** struct ComputerCommunicator * computer_communicator;
   9:Core/Src/Application/Computer_Communicator/computer_communicator.c **** 
  10:Core/Src/Application/Computer_Communicator/computer_communicator.c **** #define decimal(x) (int16_t)((x - (int16_t)x) * 100)
  11:Core/Src/Application/Computer_Communicator/computer_communicator.c **** #define integer(x) (int16_t)x
  12:Core/Src/Application/Computer_Communicator/computer_communicator.c **** 
  13:Core/Src/Application/Computer_Communicator/computer_communicator.c **** static Status initial(struct ComputerCommunicator *const self, Event const * const event)
  14:Core/Src/Application/Computer_Communicator/computer_communicator.c **** {
  29              		.loc 1 14 1 view -0
  30              		.cfi_startproc
  31              		@ args = 0, pretend = 0, frame = 0
  32              		@ frame_needed = 0, uses_anonymous_args = 0
  33              		@ link register save eliminated.
  15:Core/Src/Application/Computer_Communicator/computer_communicator.c ****   Status status;
  34              		.loc 1 15 3 view .LVU1
  16:Core/Src/Application/Computer_Communicator/computer_communicator.c ****   status = TRAN_STATUS;
  35              		.loc 1 16 3 view .LVU2
  17:Core/Src/Application/Computer_Communicator/computer_communicator.c ****   self->super.handler = (StateHandler)self->wait;
  36              		.loc 1 17 3 view .LVU3
  37              		.loc 1 17 43 is_stmt 0 view .LVU4
  38 0000 D0F8D430 		ldr	r3, [r0, #212]
  39              		.loc 1 17 23 view .LVU5
  40 0004 0360     		str	r3, [r0]
  18:Core/Src/Application/Computer_Communicator/computer_communicator.c ****   return status;
ARM GAS  C:\Users\ACER\AppData\Local\Temp\ccz54j3P.s 			page 2


  41              		.loc 1 18 3 is_stmt 1 view .LVU6
  19:Core/Src/Application/Computer_Communicator/computer_communicator.c **** }
  42              		.loc 1 19 1 is_stmt 0 view .LVU7
  43 0006 0020     		movs	r0, #0
  44              	.LVL1:
  45              		.loc 1 19 1 view .LVU8
  46 0008 7047     		bx	lr
  47              		.cfi_endproc
  48              	.LFE168:
  50              		.section	.text.sending,"ax",%progbits
  51              		.align	1
  52              		.syntax unified
  53              		.thumb
  54              		.thumb_func
  56              	sending:
  57              	.LVL2:
  58              	.LFB169:
  20:Core/Src/Application/Computer_Communicator/computer_communicator.c **** 
  21:Core/Src/Application/Computer_Communicator/computer_communicator.c **** static Status sending(struct ComputerCommunicator *const self, Event const * const event)
  22:Core/Src/Application/Computer_Communicator/computer_communicator.c **** {
  59              		.loc 1 22 1 is_stmt 1 view -0
  60              		.cfi_startproc
  61              		@ args = 0, pretend = 0, frame = 0
  62              		@ frame_needed = 0, uses_anonymous_args = 0
  63              		@ link register save eliminated.
  23:Core/Src/Application/Computer_Communicator/computer_communicator.c ****     Status status;
  64              		.loc 1 23 5 view .LVU10
  24:Core/Src/Application/Computer_Communicator/computer_communicator.c ****     
  25:Core/Src/Application/Computer_Communicator/computer_communicator.c ****     switch (event->signal)
  65              		.loc 1 25 5 view .LVU11
  66              		.loc 1 25 18 is_stmt 0 view .LVU12
  67 0000 0B88     		ldrh	r3, [r1]
  68              		.loc 1 25 5 view .LVU13
  69 0002 022B     		cmp	r3, #2
  70 0004 06D9     		bls	.L7
  71 0006 042B     		cmp	r3, #4
  72 0008 0AD1     		bne	.L6
  26:Core/Src/Application/Computer_Communicator/computer_communicator.c ****     {
  27:Core/Src/Application/Computer_Communicator/computer_communicator.c ****         case ENTRY_SIG:
  28:Core/Src/Application/Computer_Communicator/computer_communicator.c ****         {
  29:Core/Src/Application/Computer_Communicator/computer_communicator.c ****             status = HANDLED_STATUS;
  30:Core/Src/Application/Computer_Communicator/computer_communicator.c ****             break;
  31:Core/Src/Application/Computer_Communicator/computer_communicator.c ****         }
  32:Core/Src/Application/Computer_Communicator/computer_communicator.c **** 
  33:Core/Src/Application/Computer_Communicator/computer_communicator.c ****         case SENSOR_SENDED_SIG:
  34:Core/Src/Application/Computer_Communicator/computer_communicator.c ****         {
  35:Core/Src/Application/Computer_Communicator/computer_communicator.c ****             self->super.handler = (StateHandler)self->wait;
  73              		.loc 1 35 13 is_stmt 1 view .LVU14
  74              		.loc 1 35 53 is_stmt 0 view .LVU15
  75 000a D0F8D430 		ldr	r3, [r0, #212]
  76              		.loc 1 35 33 view .LVU16
  77 000e 0360     		str	r3, [r0]
  36:Core/Src/Application/Computer_Communicator/computer_communicator.c ****             status = TRAN_STATUS;
  78              		.loc 1 36 13 is_stmt 1 view .LVU17
  79              	.LVL3:
  37:Core/Src/Application/Computer_Communicator/computer_communicator.c **** 
  38:Core/Src/Application/Computer_Communicator/computer_communicator.c ****             break;
ARM GAS  C:\Users\ACER\AppData\Local\Temp\ccz54j3P.s 			page 3


  80              		.loc 1 38 13 view .LVU18
  36:Core/Src/Application/Computer_Communicator/computer_communicator.c ****             status = TRAN_STATUS;
  81              		.loc 1 36 20 is_stmt 0 view .LVU19
  82 0010 0020     		movs	r0, #0
  83              	.LVL4:
  84              		.loc 1 38 13 view .LVU20
  85 0012 7047     		bx	lr
  86              	.LVL5:
  87              	.L7:
  25:Core/Src/Application/Computer_Communicator/computer_communicator.c ****     {
  88              		.loc 1 25 5 view .LVU21
  89 0014 1BB2     		sxth	r3, r3
  90 0016 0BB1     		cbz	r3, .L5
  91 0018 0120     		movs	r0, #1
  92              	.LVL6:
  25:Core/Src/Application/Computer_Communicator/computer_communicator.c ****     {
  93              		.loc 1 25 5 view .LVU22
  94 001a 7047     		bx	lr
  95              	.LVL7:
  96              	.L5:
  39:Core/Src/Application/Computer_Communicator/computer_communicator.c ****         }
  40:Core/Src/Application/Computer_Communicator/computer_communicator.c **** 
  41:Core/Src/Application/Computer_Communicator/computer_communicator.c **** 
  42:Core/Src/Application/Computer_Communicator/computer_communicator.c ****         case EXIT_SIG:
  43:Core/Src/Application/Computer_Communicator/computer_communicator.c ****         {
  44:Core/Src/Application/Computer_Communicator/computer_communicator.c ****             status = HANDLED_STATUS;
  45:Core/Src/Application/Computer_Communicator/computer_communicator.c ****             break;
  46:Core/Src/Application/Computer_Communicator/computer_communicator.c ****         }
  47:Core/Src/Application/Computer_Communicator/computer_communicator.c ****         
  48:Core/Src/Application/Computer_Communicator/computer_communicator.c ****         default:
  49:Core/Src/Application/Computer_Communicator/computer_communicator.c ****         {
  50:Core/Src/Application/Computer_Communicator/computer_communicator.c ****             status = IGNORED_STATUS;
  97              		.loc 1 50 20 view .LVU23
  98 001c 0220     		movs	r0, #2
  99              	.LVL8:
 100              		.loc 1 50 20 view .LVU24
 101 001e 7047     		bx	lr
 102              	.LVL9:
 103              	.L6:
 104              		.loc 1 50 20 view .LVU25
 105 0020 0220     		movs	r0, #2
 106              	.LVL10:
  51:Core/Src/Application/Computer_Communicator/computer_communicator.c ****             break;
  52:Core/Src/Application/Computer_Communicator/computer_communicator.c ****         }
  53:Core/Src/Application/Computer_Communicator/computer_communicator.c ****         
  54:Core/Src/Application/Computer_Communicator/computer_communicator.c ****     }
  55:Core/Src/Application/Computer_Communicator/computer_communicator.c **** 
  56:Core/Src/Application/Computer_Communicator/computer_communicator.c ****     return status;
 107              		.loc 1 56 5 is_stmt 1 view .LVU26
  57:Core/Src/Application/Computer_Communicator/computer_communicator.c **** }
 108              		.loc 1 57 1 is_stmt 0 view .LVU27
 109 0022 7047     		bx	lr
 110              		.cfi_endproc
 111              	.LFE169:
 113              		.section	.text.new,"ax",%progbits
 114              		.align	1
 115              		.syntax unified
ARM GAS  C:\Users\ACER\AppData\Local\Temp\ccz54j3P.s 			page 4


 116              		.thumb
 117              		.thumb_func
 119              	new:
 120              	.LVL11:
 121              	.LFB173:
  58:Core/Src/Application/Computer_Communicator/computer_communicator.c **** 
  59:Core/Src/Application/Computer_Communicator/computer_communicator.c **** static Status wait(struct ComputerCommunicator *const self, Event const * const event)
  60:Core/Src/Application/Computer_Communicator/computer_communicator.c **** {
  61:Core/Src/Application/Computer_Communicator/computer_communicator.c **** 
  62:Core/Src/Application/Computer_Communicator/computer_communicator.c ****     Status status;
  63:Core/Src/Application/Computer_Communicator/computer_communicator.c ****     
  64:Core/Src/Application/Computer_Communicator/computer_communicator.c ****     switch (event->signal)
  65:Core/Src/Application/Computer_Communicator/computer_communicator.c ****     {
  66:Core/Src/Application/Computer_Communicator/computer_communicator.c ****         case ENTRY_SIG:
  67:Core/Src/Application/Computer_Communicator/computer_communicator.c ****         {
  68:Core/Src/Application/Computer_Communicator/computer_communicator.c ****             status = HANDLED_STATUS;
  69:Core/Src/Application/Computer_Communicator/computer_communicator.c ****             break;
  70:Core/Src/Application/Computer_Communicator/computer_communicator.c ****         }
  71:Core/Src/Application/Computer_Communicator/computer_communicator.c **** 
  72:Core/Src/Application/Computer_Communicator/computer_communicator.c ****         case STATE_UPDATED_SIG:
  73:Core/Src/Application/Computer_Communicator/computer_communicator.c ****         {
  74:Core/Src/Application/Computer_Communicator/computer_communicator.c ****             static State state_topic = {0};
  75:Core/Src/Application/Computer_Communicator/computer_communicator.c ****             BaseType_t is_success;
  76:Core/Src/Application/Computer_Communicator/computer_communicator.c ****             is_success = xQueuePeek(state_estimator->state_pub, &state_topic, 0);
  77:Core/Src/Application/Computer_Communicator/computer_communicator.c **** 
  78:Core/Src/Application/Computer_Communicator/computer_communicator.c ****             if(is_success)
  79:Core/Src/Application/Computer_Communicator/computer_communicator.c ****             {
  80:Core/Src/Application/Computer_Communicator/computer_communicator.c ****                 // sprintf(tx_data , "S%.3f %.3f\n", state_topic.pendlm.angle, state_topic.motor.an
  81:Core/Src/Application/Computer_Communicator/computer_communicator.c ****                 sprintf(tx_data , ">v:%.3f\n>a:%.3f\n", state_topic.pendlm.vel, state_topic.pendlm.
  82:Core/Src/Application/Computer_Communicator/computer_communicator.c ****                 HAL_UART_Transmit_IT(&huart3, (uint8_t *)tx_data, (unsigned)strlen(tx_data));
  83:Core/Src/Application/Computer_Communicator/computer_communicator.c **** 
  84:Core/Src/Application/Computer_Communicator/computer_communicator.c ****                 self->super.handler = (StateHandler)self->sending;
  85:Core/Src/Application/Computer_Communicator/computer_communicator.c ****                 status = TRAN_STATUS;
  86:Core/Src/Application/Computer_Communicator/computer_communicator.c ****             }
  87:Core/Src/Application/Computer_Communicator/computer_communicator.c ****             else
  88:Core/Src/Application/Computer_Communicator/computer_communicator.c ****             {
  89:Core/Src/Application/Computer_Communicator/computer_communicator.c ****                 status = HANDLED_STATUS;
  90:Core/Src/Application/Computer_Communicator/computer_communicator.c ****             }
  91:Core/Src/Application/Computer_Communicator/computer_communicator.c ****         
  92:Core/Src/Application/Computer_Communicator/computer_communicator.c ****             break;
  93:Core/Src/Application/Computer_Communicator/computer_communicator.c ****         }
  94:Core/Src/Application/Computer_Communicator/computer_communicator.c **** 
  95:Core/Src/Application/Computer_Communicator/computer_communicator.c ****         case EXIT_SIG:
  96:Core/Src/Application/Computer_Communicator/computer_communicator.c ****         {
  97:Core/Src/Application/Computer_Communicator/computer_communicator.c **** 
  98:Core/Src/Application/Computer_Communicator/computer_communicator.c ****         
  99:Core/Src/Application/Computer_Communicator/computer_communicator.c ****             status = HANDLED_STATUS;
 100:Core/Src/Application/Computer_Communicator/computer_communicator.c ****             break;
 101:Core/Src/Application/Computer_Communicator/computer_communicator.c ****         }
 102:Core/Src/Application/Computer_Communicator/computer_communicator.c ****         
 103:Core/Src/Application/Computer_Communicator/computer_communicator.c ****         default:
 104:Core/Src/Application/Computer_Communicator/computer_communicator.c ****         {
 105:Core/Src/Application/Computer_Communicator/computer_communicator.c ****             status = IGNORED_STATUS;
 106:Core/Src/Application/Computer_Communicator/computer_communicator.c ****             break;
 107:Core/Src/Application/Computer_Communicator/computer_communicator.c ****         }
 108:Core/Src/Application/Computer_Communicator/computer_communicator.c ****         
 109:Core/Src/Application/Computer_Communicator/computer_communicator.c ****     }
ARM GAS  C:\Users\ACER\AppData\Local\Temp\ccz54j3P.s 			page 5


 110:Core/Src/Application/Computer_Communicator/computer_communicator.c **** 
 111:Core/Src/Application/Computer_Communicator/computer_communicator.c ****     return status;
 112:Core/Src/Application/Computer_Communicator/computer_communicator.c **** }
 113:Core/Src/Application/Computer_Communicator/computer_communicator.c **** 
 114:Core/Src/Application/Computer_Communicator/computer_communicator.c **** static void public(QueueHandle_t xQueue, const void * pvItemToQueue)
 115:Core/Src/Application/Computer_Communicator/computer_communicator.c **** {
 116:Core/Src/Application/Computer_Communicator/computer_communicator.c ****   xQueueOverwrite(xQueue, pvItemToQueue);
 117:Core/Src/Application/Computer_Communicator/computer_communicator.c **** }
 118:Core/Src/Application/Computer_Communicator/computer_communicator.c **** 
 119:Core/Src/Application/Computer_Communicator/computer_communicator.c **** static void publicFromISR(QueueHandle_t xQueue, const void * pvItemToQueue, BaseType_t *pxHigherPri
 120:Core/Src/Application/Computer_Communicator/computer_communicator.c **** {
 121:Core/Src/Application/Computer_Communicator/computer_communicator.c ****   xQueueOverwriteFromISR(xQueue, pvItemToQueue, pxHigherPriorityTaskWoken);
 122:Core/Src/Application/Computer_Communicator/computer_communicator.c **** }
 123:Core/Src/Application/Computer_Communicator/computer_communicator.c **** 
 124:Core/Src/Application/Computer_Communicator/computer_communicator.c **** static void new(struct ComputerCommunicator * const self)
 125:Core/Src/Application/Computer_Communicator/computer_communicator.c **** {
 122              		.loc 1 125 1 is_stmt 1 view -0
 123              		.cfi_startproc
 124              		@ args = 0, pretend = 0, frame = 0
 125              		@ frame_needed = 0, uses_anonymous_args = 0
 126              		.loc 1 125 1 is_stmt 0 view .LVU29
 127 0000 10B5     		push	{r4, lr}
 128              	.LCFI0:
 129              		.cfi_def_cfa_offset 8
 130              		.cfi_offset 4, -8
 131              		.cfi_offset 14, -4
 132 0002 0446     		mov	r4, r0
 126:Core/Src/Application/Computer_Communicator/computer_communicator.c ****   /*Specify function pointer*/
 127:Core/Src/Application/Computer_Communicator/computer_communicator.c ****   self->initial=&initial; self->wait=&wait; self->sending=&sending;
 133              		.loc 1 127 3 is_stmt 1 view .LVU30
 134              		.loc 1 127 16 is_stmt 0 view .LVU31
 135 0004 0D49     		ldr	r1, .L10
 136 0006 C0F8D010 		str	r1, [r0, #208]
 137              		.loc 1 127 27 is_stmt 1 view .LVU32
 138              		.loc 1 127 37 is_stmt 0 view .LVU33
 139 000a 0D4B     		ldr	r3, .L10+4
 140 000c C0F8D430 		str	r3, [r0, #212]
 141              		.loc 1 127 45 is_stmt 1 view .LVU34
 142              		.loc 1 127 58 is_stmt 0 view .LVU35
 143 0010 0C4B     		ldr	r3, .L10+8
 144 0012 C0F8D830 		str	r3, [r0, #216]
 128:Core/Src/Application/Computer_Communicator/computer_communicator.c ****   self->public=&public; self->publicFromISR = &publicFromISR;
 145              		.loc 1 128 3 is_stmt 1 view .LVU36
 146              		.loc 1 128 15 is_stmt 0 view .LVU37
 147 0016 0C4B     		ldr	r3, .L10+12
 148 0018 C0F8DC30 		str	r3, [r0, #220]
 149              		.loc 1 128 25 is_stmt 1 view .LVU38
 150              		.loc 1 128 45 is_stmt 0 view .LVU39
 151 001c 0B4B     		ldr	r3, .L10+16
 152 001e C0F8E030 		str	r3, [r0, #224]
 129:Core/Src/Application/Computer_Communicator/computer_communicator.c **** 
 130:Core/Src/Application/Computer_Communicator/computer_communicator.c ****   /*Initialize members*/
 131:Core/Src/Application/Computer_Communicator/computer_communicator.c ****   Ao_new(&self->super, (StateHandler)&initial);
 153              		.loc 1 131 3 is_stmt 1 view .LVU40
 154 0022 FFF7FEFF 		bl	Ao_new
 155              	.LVL12:
 132:Core/Src/Application/Computer_Communicator/computer_communicator.c **** 
ARM GAS  C:\Users\ACER\AppData\Local\Temp\ccz54j3P.s 			page 6


 133:Core/Src/Application/Computer_Communicator/computer_communicator.c ****   /*Cache Ao for using in Encoder driver*/
 134:Core/Src/Application/Computer_Communicator/computer_communicator.c ****   ao_computer_communicator = &self->super;
 156              		.loc 1 134 3 view .LVU41
 157              		.loc 1 134 28 is_stmt 0 view .LVU42
 158 0026 0A4B     		ldr	r3, .L10+20
 159 0028 1C60     		str	r4, [r3]
 135:Core/Src/Application/Computer_Communicator/computer_communicator.c ****   computer_communicator = self;
 160              		.loc 1 135 3 is_stmt 1 view .LVU43
 161              		.loc 1 135 25 is_stmt 0 view .LVU44
 162 002a 0A4B     		ldr	r3, .L10+24
 163 002c 1C60     		str	r4, [r3]
 136:Core/Src/Application/Computer_Communicator/computer_communicator.c **** 
 137:Core/Src/Application/Computer_Communicator/computer_communicator.c ****   /*Initialize Queue for Mailbox as subsribers, publishers*/
 138:Core/Src/Application/Computer_Communicator/computer_communicator.c ****   self->state_sub = state_estimator->state_pub;
 164              		.loc 1 138 3 is_stmt 1 view .LVU45
 165              		.loc 1 138 36 is_stmt 0 view .LVU46
 166 002e 0A4B     		ldr	r3, .L10+28
 167 0030 1B68     		ldr	r3, [r3]
 168 0032 D3F8D430 		ldr	r3, [r3, #212]
 169              		.loc 1 138 19 view .LVU47
 170 0036 C4F8CC30 		str	r3, [r4, #204]
 139:Core/Src/Application/Computer_Communicator/computer_communicator.c **** }
 171              		.loc 1 139 1 view .LVU48
 172 003a 10BD     		pop	{r4, pc}
 173              	.LVL13:
 174              	.L11:
 175              		.loc 1 139 1 view .LVU49
 176              		.align	2
 177              	.L10:
 178 003c 00000000 		.word	initial
 179 0040 00000000 		.word	wait
 180 0044 00000000 		.word	sending
 181 0048 00000000 		.word	public
 182 004c 00000000 		.word	publicFromISR
 183 0050 00000000 		.word	ao_computer_communicator
 184 0054 00000000 		.word	computer_communicator
 185 0058 00000000 		.word	state_estimator
 186              		.cfi_endproc
 187              	.LFE173:
 189              		.section	.text.publicFromISR,"ax",%progbits
 190              		.align	1
 191              		.syntax unified
 192              		.thumb
 193              		.thumb_func
 195              	publicFromISR:
 196              	.LVL14:
 197              	.LFB172:
 120:Core/Src/Application/Computer_Communicator/computer_communicator.c ****   xQueueOverwriteFromISR(xQueue, pvItemToQueue, pxHigherPriorityTaskWoken);
 198              		.loc 1 120 1 is_stmt 1 view -0
 199              		.cfi_startproc
 200              		@ args = 0, pretend = 0, frame = 0
 201              		@ frame_needed = 0, uses_anonymous_args = 0
 120:Core/Src/Application/Computer_Communicator/computer_communicator.c ****   xQueueOverwriteFromISR(xQueue, pvItemToQueue, pxHigherPriorityTaskWoken);
 202              		.loc 1 120 1 is_stmt 0 view .LVU51
 203 0000 08B5     		push	{r3, lr}
 204              	.LCFI1:
 205              		.cfi_def_cfa_offset 8
ARM GAS  C:\Users\ACER\AppData\Local\Temp\ccz54j3P.s 			page 7


 206              		.cfi_offset 3, -8
 207              		.cfi_offset 14, -4
 121:Core/Src/Application/Computer_Communicator/computer_communicator.c **** }
 208              		.loc 1 121 3 is_stmt 1 view .LVU52
 209 0002 0223     		movs	r3, #2
 210 0004 FFF7FEFF 		bl	xQueueGenericSendFromISR
 211              	.LVL15:
 122:Core/Src/Application/Computer_Communicator/computer_communicator.c **** 
 212              		.loc 1 122 1 is_stmt 0 view .LVU53
 213 0008 08BD     		pop	{r3, pc}
 214              		.cfi_endproc
 215              	.LFE172:
 217              		.section	.text.public,"ax",%progbits
 218              		.align	1
 219              		.syntax unified
 220              		.thumb
 221              		.thumb_func
 223              	public:
 224              	.LVL16:
 225              	.LFB171:
 115:Core/Src/Application/Computer_Communicator/computer_communicator.c ****   xQueueOverwrite(xQueue, pvItemToQueue);
 226              		.loc 1 115 1 is_stmt 1 view -0
 227              		.cfi_startproc
 228              		@ args = 0, pretend = 0, frame = 0
 229              		@ frame_needed = 0, uses_anonymous_args = 0
 115:Core/Src/Application/Computer_Communicator/computer_communicator.c ****   xQueueOverwrite(xQueue, pvItemToQueue);
 230              		.loc 1 115 1 is_stmt 0 view .LVU55
 231 0000 08B5     		push	{r3, lr}
 232              	.LCFI2:
 233              		.cfi_def_cfa_offset 8
 234              		.cfi_offset 3, -8
 235              		.cfi_offset 14, -4
 116:Core/Src/Application/Computer_Communicator/computer_communicator.c **** }
 236              		.loc 1 116 3 is_stmt 1 view .LVU56
 237 0002 0223     		movs	r3, #2
 238 0004 0022     		movs	r2, #0
 239 0006 FFF7FEFF 		bl	xQueueGenericSend
 240              	.LVL17:
 117:Core/Src/Application/Computer_Communicator/computer_communicator.c **** 
 241              		.loc 1 117 1 is_stmt 0 view .LVU57
 242 000a 08BD     		pop	{r3, pc}
 243              		.cfi_endproc
 244              	.LFE171:
 246              		.global	__aeabi_f2d
 247              		.section	.rodata.wait.str1.4,"aMS",%progbits,1
 248              		.align	2
 249              	.LC0:
 250 0000 3E763A25 		.ascii	">v:%.3f\012>a:%.3f\012\000"
 250      2E33660A 
 250      3E613A25 
 250      2E33660A 
 250      00
 251              		.section	.text.wait,"ax",%progbits
 252              		.align	1
 253              		.syntax unified
 254              		.thumb
 255              		.thumb_func
ARM GAS  C:\Users\ACER\AppData\Local\Temp\ccz54j3P.s 			page 8


 257              	wait:
 258              	.LVL18:
 259              	.LFB170:
  60:Core/Src/Application/Computer_Communicator/computer_communicator.c **** 
 260              		.loc 1 60 1 is_stmt 1 view -0
 261              		.cfi_startproc
 262              		@ args = 0, pretend = 0, frame = 0
 263              		@ frame_needed = 0, uses_anonymous_args = 0
  62:Core/Src/Application/Computer_Communicator/computer_communicator.c ****     
 264              		.loc 1 62 5 view .LVU59
  64:Core/Src/Application/Computer_Communicator/computer_communicator.c ****     {
 265              		.loc 1 64 5 view .LVU60
  64:Core/Src/Application/Computer_Communicator/computer_communicator.c ****     {
 266              		.loc 1 64 18 is_stmt 0 view .LVU61
 267 0000 0B88     		ldrh	r3, [r1]
  64:Core/Src/Application/Computer_Communicator/computer_communicator.c ****     {
 268              		.loc 1 64 5 view .LVU62
 269 0002 022B     		cmp	r3, #2
 270 0004 12D9     		bls	.L25
  60:Core/Src/Application/Computer_Communicator/computer_communicator.c **** 
 271              		.loc 1 60 1 view .LVU63
 272 0006 2DE9F041 		push	{r4, r5, r6, r7, r8, lr}
 273              	.LCFI3:
 274              		.cfi_def_cfa_offset 24
 275              		.cfi_offset 4, -24
 276              		.cfi_offset 5, -20
 277              		.cfi_offset 6, -16
 278              		.cfi_offset 7, -12
 279              		.cfi_offset 8, -8
 280              		.cfi_offset 14, -4
 281 000a 82B0     		sub	sp, sp, #8
 282              	.LCFI4:
 283              		.cfi_def_cfa_offset 32
 284 000c 0446     		mov	r4, r0
  64:Core/Src/Application/Computer_Communicator/computer_communicator.c ****     {
 285              		.loc 1 64 5 view .LVU64
 286 000e 052B     		cmp	r3, #5
 287 0010 33D1     		bne	.L20
 288              	.LBB2:
  74:Core/Src/Application/Computer_Communicator/computer_communicator.c ****             BaseType_t is_success;
 289              		.loc 1 74 13 is_stmt 1 view .LVU65
  75:Core/Src/Application/Computer_Communicator/computer_communicator.c ****             is_success = xQueuePeek(state_estimator->state_pub, &state_topic, 0);
 290              		.loc 1 75 13 view .LVU66
  76:Core/Src/Application/Computer_Communicator/computer_communicator.c **** 
 291              		.loc 1 76 13 view .LVU67
  76:Core/Src/Application/Computer_Communicator/computer_communicator.c **** 
 292              		.loc 1 76 52 is_stmt 0 view .LVU68
 293 0012 1B4B     		ldr	r3, .L27
 294 0014 1B68     		ldr	r3, [r3]
  76:Core/Src/Application/Computer_Communicator/computer_communicator.c **** 
 295              		.loc 1 76 26 view .LVU69
 296 0016 0022     		movs	r2, #0
 297 0018 1A49     		ldr	r1, .L27+4
 298              	.LVL19:
  76:Core/Src/Application/Computer_Communicator/computer_communicator.c **** 
 299              		.loc 1 76 26 view .LVU70
 300 001a D3F8D400 		ldr	r0, [r3, #212]
ARM GAS  C:\Users\ACER\AppData\Local\Temp\ccz54j3P.s 			page 9


 301              	.LVL20:
  76:Core/Src/Application/Computer_Communicator/computer_communicator.c **** 
 302              		.loc 1 76 26 view .LVU71
 303 001e FFF7FEFF 		bl	xQueuePeek
 304              	.LVL21:
  78:Core/Src/Application/Computer_Communicator/computer_communicator.c ****             {
 305              		.loc 1 78 13 is_stmt 1 view .LVU72
  78:Core/Src/Application/Computer_Communicator/computer_communicator.c ****             {
 306              		.loc 1 78 15 is_stmt 0 view .LVU73
 307 0022 38B9     		cbnz	r0, .L26
  89:Core/Src/Application/Computer_Communicator/computer_communicator.c ****             }
 308              		.loc 1 89 24 view .LVU74
 309 0024 0120     		movs	r0, #1
 310              	.LVL22:
 311              	.L18:
  89:Core/Src/Application/Computer_Communicator/computer_communicator.c ****             }
 312              		.loc 1 89 24 view .LVU75
 313              	.LBE2:
 111:Core/Src/Application/Computer_Communicator/computer_communicator.c **** }
 314              		.loc 1 111 5 is_stmt 1 view .LVU76
 112:Core/Src/Application/Computer_Communicator/computer_communicator.c **** 
 315              		.loc 1 112 1 is_stmt 0 view .LVU77
 316 0026 02B0     		add	sp, sp, #8
 317              	.LCFI5:
 318              		.cfi_def_cfa_offset 24
 319              		@ sp needed
 320 0028 BDE8F081 		pop	{r4, r5, r6, r7, r8, pc}
 321              	.LVL23:
 322              	.L25:
 323              	.LCFI6:
 324              		.cfi_def_cfa_offset 0
 325              		.cfi_restore 4
 326              		.cfi_restore 5
 327              		.cfi_restore 6
 328              		.cfi_restore 7
 329              		.cfi_restore 8
 330              		.cfi_restore 14
  64:Core/Src/Application/Computer_Communicator/computer_communicator.c ****     {
 331              		.loc 1 64 5 view .LVU78
 332 002c 1BB2     		sxth	r3, r3
 333 002e 13B3     		cbz	r3, .L19
 334 0030 0120     		movs	r0, #1
 335              	.LVL24:
  64:Core/Src/Application/Computer_Communicator/computer_communicator.c ****     {
 336              		.loc 1 64 5 view .LVU79
 337 0032 7047     		bx	lr
 338              	.LVL25:
 339              	.L26:
 340              	.LCFI7:
 341              		.cfi_def_cfa_offset 32
 342              		.cfi_offset 4, -24
 343              		.cfi_offset 5, -20
 344              		.cfi_offset 6, -16
 345              		.cfi_offset 7, -12
 346              		.cfi_offset 8, -8
 347              		.cfi_offset 14, -4
 348              	.LBB3:
ARM GAS  C:\Users\ACER\AppData\Local\Temp\ccz54j3P.s 			page 10


  81:Core/Src/Application/Computer_Communicator/computer_communicator.c ****                 HAL_UART_Transmit_IT(&huart3, (uint8_t *)tx_data, (unsigned)strlen(tx_data));
 349              		.loc 1 81 17 is_stmt 1 view .LVU80
  81:Core/Src/Application/Computer_Communicator/computer_communicator.c ****                 HAL_UART_Transmit_IT(&huart3, (uint8_t *)tx_data, (unsigned)strlen(tx_data));
 350              		.loc 1 81 75 is_stmt 0 view .LVU81
 351 0034 134B     		ldr	r3, .L27+4
  81:Core/Src/Application/Computer_Communicator/computer_communicator.c ****                 HAL_UART_Transmit_IT(&huart3, (uint8_t *)tx_data, (unsigned)strlen(tx_data));
 352              		.loc 1 81 99 view .LVU82
 353 0036 D3F80C80 		ldr	r8, [r3, #12]	@ float
  81:Core/Src/Application/Computer_Communicator/computer_communicator.c ****                 HAL_UART_Transmit_IT(&huart3, (uint8_t *)tx_data, (unsigned)strlen(tx_data));
 354              		.loc 1 81 17 view .LVU83
 355 003a 1869     		ldr	r0, [r3, #16]	@ float
 356              	.LVL26:
  81:Core/Src/Application/Computer_Communicator/computer_communicator.c ****                 HAL_UART_Transmit_IT(&huart3, (uint8_t *)tx_data, (unsigned)strlen(tx_data));
 357              		.loc 1 81 17 view .LVU84
 358 003c FFF7FEFF 		bl	__aeabi_f2d
 359              	.LVL27:
 360 0040 0646     		mov	r6, r0
 361 0042 0F46     		mov	r7, r1
 362 0044 104D     		ldr	r5, .L27+8
 363 0046 4046     		mov	r0, r8	@ float
 364 0048 FFF7FEFF 		bl	__aeabi_f2d
 365              	.LVL28:
 366 004c CDE90001 		strd	r0, [sp]
 367 0050 3246     		mov	r2, r6
 368 0052 3B46     		mov	r3, r7
 369 0054 0D49     		ldr	r1, .L27+12
 370 0056 2846     		mov	r0, r5
 371 0058 FFF7FEFF 		bl	sprintf_
 372              	.LVL29:
  82:Core/Src/Application/Computer_Communicator/computer_communicator.c **** 
 373              		.loc 1 82 17 is_stmt 1 view .LVU85
  82:Core/Src/Application/Computer_Communicator/computer_communicator.c **** 
 374              		.loc 1 82 77 is_stmt 0 view .LVU86
 375 005c 2846     		mov	r0, r5
 376 005e FFF7FEFF 		bl	strlen
 377              	.LVL30:
  82:Core/Src/Application/Computer_Communicator/computer_communicator.c **** 
 378              		.loc 1 82 17 discriminator 1 view .LVU87
 379 0062 82B2     		uxth	r2, r0
 380 0064 2946     		mov	r1, r5
 381 0066 0A48     		ldr	r0, .L27+16
 382 0068 FFF7FEFF 		bl	HAL_UART_Transmit_IT
 383              	.LVL31:
  84:Core/Src/Application/Computer_Communicator/computer_communicator.c ****                 status = TRAN_STATUS;
 384              		.loc 1 84 17 is_stmt 1 view .LVU88
  84:Core/Src/Application/Computer_Communicator/computer_communicator.c ****                 status = TRAN_STATUS;
 385              		.loc 1 84 57 is_stmt 0 view .LVU89
 386 006c D4F8D830 		ldr	r3, [r4, #216]
  84:Core/Src/Application/Computer_Communicator/computer_communicator.c ****                 status = TRAN_STATUS;
 387              		.loc 1 84 37 view .LVU90
 388 0070 2360     		str	r3, [r4]
  85:Core/Src/Application/Computer_Communicator/computer_communicator.c ****             }
 389              		.loc 1 85 17 is_stmt 1 view .LVU91
 390              	.LVL32:
  85:Core/Src/Application/Computer_Communicator/computer_communicator.c ****             }
 391              		.loc 1 85 24 is_stmt 0 view .LVU92
 392 0072 0020     		movs	r0, #0
ARM GAS  C:\Users\ACER\AppData\Local\Temp\ccz54j3P.s 			page 11


 393 0074 D7E7     		b	.L18
 394              	.LVL33:
 395              	.L19:
 396              	.LCFI8:
 397              		.cfi_def_cfa_offset 0
 398              		.cfi_restore 4
 399              		.cfi_restore 5
 400              		.cfi_restore 6
 401              		.cfi_restore 7
 402              		.cfi_restore 8
 403              		.cfi_restore 14
  85:Core/Src/Application/Computer_Communicator/computer_communicator.c ****             }
 404              		.loc 1 85 24 view .LVU93
 405              	.LBE3:
 105:Core/Src/Application/Computer_Communicator/computer_communicator.c ****             break;
 406              		.loc 1 105 20 view .LVU94
 407 0076 0220     		movs	r0, #2
 408              	.LVL34:
 111:Core/Src/Application/Computer_Communicator/computer_communicator.c **** }
 409              		.loc 1 111 5 is_stmt 1 view .LVU95
 112:Core/Src/Application/Computer_Communicator/computer_communicator.c **** 
 410              		.loc 1 112 1 is_stmt 0 view .LVU96
 411 0078 7047     		bx	lr
 412              	.LVL35:
 413              	.L20:
 414              	.LCFI9:
 415              		.cfi_def_cfa_offset 32
 416              		.cfi_offset 4, -24
 417              		.cfi_offset 5, -20
 418              		.cfi_offset 6, -16
 419              		.cfi_offset 7, -12
 420              		.cfi_offset 8, -8
 421              		.cfi_offset 14, -4
 105:Core/Src/Application/Computer_Communicator/computer_communicator.c ****             break;
 422              		.loc 1 105 20 view .LVU97
 423 007a 0220     		movs	r0, #2
 424              	.LVL36:
 105:Core/Src/Application/Computer_Communicator/computer_communicator.c ****             break;
 425              		.loc 1 105 20 view .LVU98
 426 007c D3E7     		b	.L18
 427              	.L28:
 428 007e 00BF     		.align	2
 429              	.L27:
 430 0080 00000000 		.word	state_estimator
 431 0084 00000000 		.word	state_topic.0
 432 0088 00000000 		.word	tx_data
 433 008c 00000000 		.word	.LC0
 434 0090 00000000 		.word	huart3
 435              		.cfi_endproc
 436              	.LFE170:
 438              		.section	.bss.state_topic.0,"aw",%nobits
 439              		.align	2
 442              	state_topic.0:
 443 0000 00000000 		.space	24
 443      00000000 
 443      00000000 
 443      00000000 
ARM GAS  C:\Users\ACER\AppData\Local\Temp\ccz54j3P.s 			page 12


 443      00000000 
 444              		.global	ComputerCommunicator
 445              		.section	.rodata.ComputerCommunicator,"a"
 446              		.align	2
 449              	ComputerCommunicator:
 450 0000 00000000 		.word	new
 451              		.global	computer_communicator
 452              		.section	.bss.computer_communicator,"aw",%nobits
 453              		.align	2
 456              	computer_communicator:
 457 0000 00000000 		.space	4
 458              		.global	ao_computer_communicator
 459              		.section	.bss.ao_computer_communicator,"aw",%nobits
 460              		.align	2
 463              	ao_computer_communicator:
 464 0000 00000000 		.space	4
 465              		.section	.bss.tx_data,"aw",%nobits
 466              		.align	2
 469              	tx_data:
 470 0000 00000000 		.space	15
 470      00000000 
 470      00000000 
 470      000000
 471              		.text
 472              	.Letext0:
 473              		.file 2 "D:/Software/Arm Toolchain/arm-gnu-toolchain-13.2.rel1-mingw-w64-i686-arm-none-eabi/arm-gn
 474              		.file 3 "D:/Software/Arm Toolchain/arm-gnu-toolchain-13.2.rel1-mingw-w64-i686-arm-none-eabi/arm-gn
 475              		.file 4 "Drivers/CMSIS/Device/ST/STM32F4xx/Include/stm32f407xx.h"
 476              		.file 5 "D:/Software/Arm Toolchain/arm-gnu-toolchain-13.2.rel1-mingw-w64-i686-arm-none-eabi/arm-gn
 477              		.file 6 "Drivers/STM32F4xx_HAL_Driver/Inc/stm32f4xx_hal_def.h"
 478              		.file 7 "Drivers/STM32F4xx_HAL_Driver/Inc/stm32f4xx_hal_dma.h"
 479              		.file 8 "Drivers/STM32F4xx_HAL_Driver/Inc/stm32f4xx_hal_uart.h"
 480              		.file 9 "ThirdParty/FreeRTOS/portable/GCC/ARM_CM4F/portmacro.h"
 481              		.file 10 "ThirdParty/FreeRTOS/include/FreeRTOS.h"
 482              		.file 11 "ThirdParty/FreeRTOS/include/task.h"
 483              		.file 12 "ThirdParty/FreeRTOS/include/queue.h"
 484              		.file 13 "Core/Src/Middleware/Active_Object/active_object.h"
 485              		.file 14 "Drivers/CMSIS/DSP/Include/arm_math.h"
 486              		.file 15 "Core/Src/Middleware/Topic/topic.h"
 487              		.file 16 "Core/Src/Application/State_Estimator/Dsp/dsp.h"
 488              		.file 17 "Core/Src/Application/State_Estimator/state_estimator.h"
 489              		.file 18 "Core/Src/Application/Computer_Communicator/computer_communicator.h"
 490              		.file 19 "D:/Software/Arm Toolchain/arm-gnu-toolchain-13.2.rel1-mingw-w64-i686-arm-none-eabi/arm-g
 491              		.file 20 "Core/Src/printf.h"
ARM GAS  C:\Users\ACER\AppData\Local\Temp\ccz54j3P.s 			page 13

