ARM GAS  C:\Users\ACER\AppData\Local\Temp\ccRn6DSV.s 			page 1


   1              		.cpu cortex-m4
   2              		.arch armv7e-m
   3              		.fpu fpv4-sp-d16
   4              		.eabi_attribute 27, 1
   5              		.eabi_attribute 28, 1
   6              		.eabi_attribute 20, 1
   7              		.eabi_attribute 21, 1
   8              		.eabi_attribute 23, 3
   9              		.eabi_attribute 24, 1
  10              		.eabi_attribute 25, 1
  11              		.eabi_attribute 26, 1
  12              		.eabi_attribute 30, 1
  13              		.eabi_attribute 34, 1
  14              		.eabi_attribute 18, 4
  15              		.file	"encoder.c"
  16              		.text
  17              	.Ltext0:
  18              		.cfi_sections	.debug_frame
  19              		.file 1 "Core/Src/Drivers/Encoder/encoder.c"
  20              		.section	.text.MX_TIM3_Init,"ax",%progbits
  21              		.align	1
  22              		.syntax unified
  23              		.thumb
  24              		.thumb_func
  26              	MX_TIM3_Init:
  27              	.LFB174:
   1:Core/Src/Drivers/Encoder/encoder.c **** #include "encoder.h"
   2:Core/Src/Drivers/Encoder/encoder.c **** 
   3:Core/Src/Drivers/Encoder/encoder.c **** /*Private Interfacce*/
   4:Core/Src/Drivers/Encoder/encoder.c **** TIM_HandleTypeDef htim3;
   5:Core/Src/Drivers/Encoder/encoder.c **** TIM_HandleTypeDef htim4;
   6:Core/Src/Drivers/Encoder/encoder.c **** TIM_HandleTypeDef htim7;
   7:Core/Src/Drivers/Encoder/encoder.c **** extern struct Ao * ao_estimator;
   8:Core/Src/Drivers/Encoder/encoder.c **** 
   9:Core/Src/Drivers/Encoder/encoder.c **** static int16_t motor_counter = 0;
  10:Core/Src/Drivers/Encoder/encoder.c **** static int16_t pendlm_counter = 0;
  11:Core/Src/Drivers/Encoder/encoder.c **** 
  12:Core/Src/Drivers/Encoder/encoder.c **** static void MX_TIM3_Init(void);
  13:Core/Src/Drivers/Encoder/encoder.c **** static void MX_TIM4_Init(void);
  14:Core/Src/Drivers/Encoder/encoder.c **** static void MX_TIM7_Init(void);
  15:Core/Src/Drivers/Encoder/encoder.c **** 
  16:Core/Src/Drivers/Encoder/encoder.c **** 
  17:Core/Src/Drivers/Encoder/encoder.c **** /**
  18:Core/Src/Drivers/Encoder/encoder.c ****   * @brief  Period elapsed callback in non-blocking mode
  19:Core/Src/Drivers/Encoder/encoder.c ****   * @param  htim TIM handle
  20:Core/Src/Drivers/Encoder/encoder.c ****   * @retval None
  21:Core/Src/Drivers/Encoder/encoder.c ****   */
  22:Core/Src/Drivers/Encoder/encoder.c **** void HAL_TIM_PeriodElapsedCallback(TIM_HandleTypeDef *htim)
  23:Core/Src/Drivers/Encoder/encoder.c **** {
  24:Core/Src/Drivers/Encoder/encoder.c ****   BaseType_t xHigherPriorityTaskWoken = pdFALSE;
  25:Core/Src/Drivers/Encoder/encoder.c ****   if(htim->Instance == TIM7)
  26:Core/Src/Drivers/Encoder/encoder.c ****   {
  27:Core/Src/Drivers/Encoder/encoder.c ****     static const Event time_evt = {TIMEOUT_2KHz_SIG};
  28:Core/Src/Drivers/Encoder/encoder.c ****     ao_estimator->postFromISR(ao_estimator, &time_evt, &xHigherPriorityTaskWoken);
  29:Core/Src/Drivers/Encoder/encoder.c ****   }
  30:Core/Src/Drivers/Encoder/encoder.c **** 
  31:Core/Src/Drivers/Encoder/encoder.c ****   portEND_SWITCHING_ISR(xHigherPriorityTaskWoken);
ARM GAS  C:\Users\ACER\AppData\Local\Temp\ccRn6DSV.s 			page 2


  32:Core/Src/Drivers/Encoder/encoder.c **** }
  33:Core/Src/Drivers/Encoder/encoder.c **** 
  34:Core/Src/Drivers/Encoder/encoder.c **** /**
  35:Core/Src/Drivers/Encoder/encoder.c ****   * @brief  Input Capture callback in non-blocking mode
  36:Core/Src/Drivers/Encoder/encoder.c ****   * @param  htim TIM IC handle
  37:Core/Src/Drivers/Encoder/encoder.c ****   * @retval None
  38:Core/Src/Drivers/Encoder/encoder.c ****   */
  39:Core/Src/Drivers/Encoder/encoder.c **** void HAL_TIM_IC_CaptureCallback(TIM_HandleTypeDef *htim)
  40:Core/Src/Drivers/Encoder/encoder.c **** {
  41:Core/Src/Drivers/Encoder/encoder.c ****   if(htim->Instance == TIM4)
  42:Core/Src/Drivers/Encoder/encoder.c ****   {
  43:Core/Src/Drivers/Encoder/encoder.c ****     // Read motor encoder counter value 
  44:Core/Src/Drivers/Encoder/encoder.c ****     motor_counter = (int16_t)((uint32_t)__HAL_TIM_GET_COUNTER(htim));
  45:Core/Src/Drivers/Encoder/encoder.c ****   }
  46:Core/Src/Drivers/Encoder/encoder.c ****   else if(htim->Instance == TIM3)
  47:Core/Src/Drivers/Encoder/encoder.c ****   {
  48:Core/Src/Drivers/Encoder/encoder.c ****     // Read pendullum encoder counter value 
  49:Core/Src/Drivers/Encoder/encoder.c ****     pendlm_counter = (int16_t)((uint32_t)__HAL_TIM_GET_COUNTER(htim));
  50:Core/Src/Drivers/Encoder/encoder.c ****   }
  51:Core/Src/Drivers/Encoder/encoder.c **** }
  52:Core/Src/Drivers/Encoder/encoder.c **** 
  53:Core/Src/Drivers/Encoder/encoder.c **** /**
  54:Core/Src/Drivers/Encoder/encoder.c ****   * @brief This function handles TIM3 global interrupt.
  55:Core/Src/Drivers/Encoder/encoder.c ****   */
  56:Core/Src/Drivers/Encoder/encoder.c **** void TIM3_IRQHandler(void)
  57:Core/Src/Drivers/Encoder/encoder.c **** {
  58:Core/Src/Drivers/Encoder/encoder.c ****   HAL_TIM_IRQHandler(&htim3);
  59:Core/Src/Drivers/Encoder/encoder.c **** }
  60:Core/Src/Drivers/Encoder/encoder.c **** 
  61:Core/Src/Drivers/Encoder/encoder.c **** /**
  62:Core/Src/Drivers/Encoder/encoder.c ****   * @brief This function handles TIM4 global interrupt.
  63:Core/Src/Drivers/Encoder/encoder.c ****   */
  64:Core/Src/Drivers/Encoder/encoder.c **** void TIM4_IRQHandler(void)
  65:Core/Src/Drivers/Encoder/encoder.c **** {
  66:Core/Src/Drivers/Encoder/encoder.c ****   HAL_TIM_IRQHandler(&htim4);
  67:Core/Src/Drivers/Encoder/encoder.c **** }
  68:Core/Src/Drivers/Encoder/encoder.c **** 
  69:Core/Src/Drivers/Encoder/encoder.c **** /**
  70:Core/Src/Drivers/Encoder/encoder.c ****   * @brief This function handles TIM7 global interrupt.
  71:Core/Src/Drivers/Encoder/encoder.c ****   */
  72:Core/Src/Drivers/Encoder/encoder.c **** void TIM7_IRQHandler(void)
  73:Core/Src/Drivers/Encoder/encoder.c **** {
  74:Core/Src/Drivers/Encoder/encoder.c ****   HAL_TIM_IRQHandler(&htim7);
  75:Core/Src/Drivers/Encoder/encoder.c **** }
  76:Core/Src/Drivers/Encoder/encoder.c **** 
  77:Core/Src/Drivers/Encoder/encoder.c **** /**
  78:Core/Src/Drivers/Encoder/encoder.c ****   * @brief This function initialize USART1.
  79:Core/Src/Drivers/Encoder/encoder.c ****   */
  80:Core/Src/Drivers/Encoder/encoder.c **** void Driver_Encoder_Init()
  81:Core/Src/Drivers/Encoder/encoder.c **** {
  82:Core/Src/Drivers/Encoder/encoder.c ****   MX_TIM3_Init(); // Motor encoder
  83:Core/Src/Drivers/Encoder/encoder.c ****   MX_TIM4_Init(); // Pendullum encoder
  84:Core/Src/Drivers/Encoder/encoder.c ****   MX_TIM7_Init(); // Basic timer for generating periodic task running at 2kHz
  85:Core/Src/Drivers/Encoder/encoder.c **** 
  86:Core/Src/Drivers/Encoder/encoder.c ****   // HAL_TIM_Base_Start_IT(&htim7);
  87:Core/Src/Drivers/Encoder/encoder.c ****   // HAL_TIM_Encoder_Start_IT(&htim3, TIM_CHANNEL_ALL);
  88:Core/Src/Drivers/Encoder/encoder.c ****   // HAL_TIM_Encoder_Start_IT(&htim4, TIM_CHANNEL_ALL);
ARM GAS  C:\Users\ACER\AppData\Local\Temp\ccRn6DSV.s 			page 3


  89:Core/Src/Drivers/Encoder/encoder.c **** }
  90:Core/Src/Drivers/Encoder/encoder.c **** 
  91:Core/Src/Drivers/Encoder/encoder.c **** /**
  92:Core/Src/Drivers/Encoder/encoder.c ****   * @brief TIM3 Initialization Function
  93:Core/Src/Drivers/Encoder/encoder.c ****   * @param None
  94:Core/Src/Drivers/Encoder/encoder.c ****   * @retval None
  95:Core/Src/Drivers/Encoder/encoder.c ****   */
  96:Core/Src/Drivers/Encoder/encoder.c **** static void MX_TIM3_Init(void)
  97:Core/Src/Drivers/Encoder/encoder.c **** {
  28              		.loc 1 97 1 view -0
  29              		.cfi_startproc
  30              		@ args = 0, pretend = 0, frame = 48
  31              		@ frame_needed = 0, uses_anonymous_args = 0
  32 0000 30B5     		push	{r4, r5, lr}
  33              	.LCFI0:
  34              		.cfi_def_cfa_offset 12
  35              		.cfi_offset 4, -12
  36              		.cfi_offset 5, -8
  37              		.cfi_offset 14, -4
  38 0002 8DB0     		sub	sp, sp, #52
  39              	.LCFI1:
  40              		.cfi_def_cfa_offset 64
  98:Core/Src/Drivers/Encoder/encoder.c ****   TIM_Encoder_InitTypeDef sConfig = {0};
  41              		.loc 1 98 3 view .LVU1
  42              		.loc 1 98 27 is_stmt 0 view .LVU2
  43 0004 2422     		movs	r2, #36
  44 0006 0021     		movs	r1, #0
  45 0008 03A8     		add	r0, sp, #12
  46 000a FFF7FEFF 		bl	memset
  47              	.LVL0:
  99:Core/Src/Drivers/Encoder/encoder.c ****   TIM_MasterConfigTypeDef sMasterConfig = {0};
  48              		.loc 1 99 3 is_stmt 1 view .LVU3
  49              		.loc 1 99 27 is_stmt 0 view .LVU4
  50 000e 0025     		movs	r5, #0
  51 0010 0195     		str	r5, [sp, #4]
  52 0012 0295     		str	r5, [sp, #8]
 100:Core/Src/Drivers/Encoder/encoder.c **** 
 101:Core/Src/Drivers/Encoder/encoder.c ****   /* USER CODE BEGIN TIM3_Init 1 */
 102:Core/Src/Drivers/Encoder/encoder.c **** 
 103:Core/Src/Drivers/Encoder/encoder.c ****   /* USER CODE END TIM3_Init 1 */
 104:Core/Src/Drivers/Encoder/encoder.c ****   htim3.Instance = TIM3;
  53              		.loc 1 104 3 is_stmt 1 view .LVU5
  54              		.loc 1 104 18 is_stmt 0 view .LVU6
  55 0014 0D4C     		ldr	r4, .L3
  56 0016 0E4B     		ldr	r3, .L3+4
  57 0018 2360     		str	r3, [r4]
 105:Core/Src/Drivers/Encoder/encoder.c ****   htim3.Init.Prescaler = 0;
  58              		.loc 1 105 3 is_stmt 1 view .LVU7
  59              		.loc 1 105 24 is_stmt 0 view .LVU8
  60 001a 6560     		str	r5, [r4, #4]
 106:Core/Src/Drivers/Encoder/encoder.c ****   htim3.Init.CounterMode = TIM_COUNTERMODE_UP;
  61              		.loc 1 106 3 is_stmt 1 view .LVU9
  62              		.loc 1 106 26 is_stmt 0 view .LVU10
  63 001c A560     		str	r5, [r4, #8]
 107:Core/Src/Drivers/Encoder/encoder.c ****   htim3.Init.Period = 65535;
  64              		.loc 1 107 3 is_stmt 1 view .LVU11
  65              		.loc 1 107 21 is_stmt 0 view .LVU12
ARM GAS  C:\Users\ACER\AppData\Local\Temp\ccRn6DSV.s 			page 4


  66 001e 4FF6FF73 		movw	r3, #65535
  67 0022 E360     		str	r3, [r4, #12]
 108:Core/Src/Drivers/Encoder/encoder.c ****   htim3.Init.ClockDivision = TIM_CLOCKDIVISION_DIV1;
  68              		.loc 1 108 3 is_stmt 1 view .LVU13
  69              		.loc 1 108 28 is_stmt 0 view .LVU14
  70 0024 2561     		str	r5, [r4, #16]
 109:Core/Src/Drivers/Encoder/encoder.c ****   htim3.Init.AutoReloadPreload = TIM_AUTORELOAD_PRELOAD_DISABLE;
  71              		.loc 1 109 3 is_stmt 1 view .LVU15
  72              		.loc 1 109 32 is_stmt 0 view .LVU16
  73 0026 A561     		str	r5, [r4, #24]
 110:Core/Src/Drivers/Encoder/encoder.c ****   sConfig.EncoderMode = TIM_ENCODERMODE_TI12;
  74              		.loc 1 110 3 is_stmt 1 view .LVU17
  75              		.loc 1 110 23 is_stmt 0 view .LVU18
  76 0028 0323     		movs	r3, #3
  77 002a 0393     		str	r3, [sp, #12]
 111:Core/Src/Drivers/Encoder/encoder.c ****   sConfig.IC1Polarity = TIM_ICPOLARITY_RISING;
  78              		.loc 1 111 3 is_stmt 1 view .LVU19
 112:Core/Src/Drivers/Encoder/encoder.c ****   sConfig.IC1Selection = TIM_ICSELECTION_DIRECTTI;
  79              		.loc 1 112 3 view .LVU20
  80              		.loc 1 112 24 is_stmt 0 view .LVU21
  81 002c 0123     		movs	r3, #1
  82 002e 0593     		str	r3, [sp, #20]
 113:Core/Src/Drivers/Encoder/encoder.c ****   sConfig.IC1Prescaler = TIM_ICPSC_DIV1;
  83              		.loc 1 113 3 is_stmt 1 view .LVU22
 114:Core/Src/Drivers/Encoder/encoder.c ****   sConfig.IC1Filter = 0;
  84              		.loc 1 114 3 view .LVU23
 115:Core/Src/Drivers/Encoder/encoder.c ****   sConfig.IC2Polarity = TIM_ICPOLARITY_RISING;
  85              		.loc 1 115 3 view .LVU24
 116:Core/Src/Drivers/Encoder/encoder.c ****   sConfig.IC2Selection = TIM_ICSELECTION_DIRECTTI;
  86              		.loc 1 116 3 view .LVU25
  87              		.loc 1 116 24 is_stmt 0 view .LVU26
  88 0030 0993     		str	r3, [sp, #36]
 117:Core/Src/Drivers/Encoder/encoder.c ****   sConfig.IC2Prescaler = TIM_ICPSC_DIV1;
  89              		.loc 1 117 3 is_stmt 1 view .LVU27
 118:Core/Src/Drivers/Encoder/encoder.c ****   sConfig.IC2Filter = 0;
  90              		.loc 1 118 3 view .LVU28
 119:Core/Src/Drivers/Encoder/encoder.c ****   if (HAL_TIM_Encoder_Init(&htim3, &sConfig) != HAL_OK)
  91              		.loc 1 119 3 view .LVU29
  92              		.loc 1 119 7 is_stmt 0 view .LVU30
  93 0032 03A9     		add	r1, sp, #12
  94 0034 2046     		mov	r0, r4
  95 0036 FFF7FEFF 		bl	HAL_TIM_Encoder_Init
  96              	.LVL1:
 120:Core/Src/Drivers/Encoder/encoder.c ****   {
 121:Core/Src/Drivers/Encoder/encoder.c ****     // Error_Handler();
 122:Core/Src/Drivers/Encoder/encoder.c ****   }
  97              		.loc 1 122 3 is_stmt 1 view .LVU31
 123:Core/Src/Drivers/Encoder/encoder.c ****   sMasterConfig.MasterOutputTrigger = TIM_TRGO_RESET;
  98              		.loc 1 123 3 view .LVU32
  99              		.loc 1 123 37 is_stmt 0 view .LVU33
 100 003a 0195     		str	r5, [sp, #4]
 124:Core/Src/Drivers/Encoder/encoder.c ****   sMasterConfig.MasterSlaveMode = TIM_MASTERSLAVEMODE_DISABLE;
 101              		.loc 1 124 3 is_stmt 1 view .LVU34
 102              		.loc 1 124 33 is_stmt 0 view .LVU35
 103 003c 0295     		str	r5, [sp, #8]
 125:Core/Src/Drivers/Encoder/encoder.c ****   if (HAL_TIMEx_MasterConfigSynchronization(&htim3, &sMasterConfig) != HAL_OK)
 104              		.loc 1 125 3 is_stmt 1 view .LVU36
ARM GAS  C:\Users\ACER\AppData\Local\Temp\ccRn6DSV.s 			page 5


 105              		.loc 1 125 7 is_stmt 0 view .LVU37
 106 003e 01A9     		add	r1, sp, #4
 107 0040 2046     		mov	r0, r4
 108 0042 FFF7FEFF 		bl	HAL_TIMEx_MasterConfigSynchronization
 109              	.LVL2:
 126:Core/Src/Drivers/Encoder/encoder.c ****   {
 127:Core/Src/Drivers/Encoder/encoder.c ****     // Error_Handler();
 128:Core/Src/Drivers/Encoder/encoder.c ****   }
 110              		.loc 1 128 3 is_stmt 1 view .LVU38
 129:Core/Src/Drivers/Encoder/encoder.c **** }
 111              		.loc 1 129 1 is_stmt 0 view .LVU39
 112 0046 0DB0     		add	sp, sp, #52
 113              	.LCFI2:
 114              		.cfi_def_cfa_offset 12
 115              		@ sp needed
 116 0048 30BD     		pop	{r4, r5, pc}
 117              	.L4:
 118 004a 00BF     		.align	2
 119              	.L3:
 120 004c 00000000 		.word	htim3
 121 0050 00040040 		.word	1073742848
 122              		.cfi_endproc
 123              	.LFE174:
 125              		.section	.text.MX_TIM4_Init,"ax",%progbits
 126              		.align	1
 127              		.syntax unified
 128              		.thumb
 129              		.thumb_func
 131              	MX_TIM4_Init:
 132              	.LFB175:
 130:Core/Src/Drivers/Encoder/encoder.c **** 
 131:Core/Src/Drivers/Encoder/encoder.c **** /**
 132:Core/Src/Drivers/Encoder/encoder.c ****   * @brief TIM4 Initialization Function
 133:Core/Src/Drivers/Encoder/encoder.c ****   * @param None
 134:Core/Src/Drivers/Encoder/encoder.c ****   * @retval None
 135:Core/Src/Drivers/Encoder/encoder.c ****   */
 136:Core/Src/Drivers/Encoder/encoder.c **** static void MX_TIM4_Init(void)
 137:Core/Src/Drivers/Encoder/encoder.c **** {
 133              		.loc 1 137 1 is_stmt 1 view -0
 134              		.cfi_startproc
 135              		@ args = 0, pretend = 0, frame = 48
 136              		@ frame_needed = 0, uses_anonymous_args = 0
 137 0000 30B5     		push	{r4, r5, lr}
 138              	.LCFI3:
 139              		.cfi_def_cfa_offset 12
 140              		.cfi_offset 4, -12
 141              		.cfi_offset 5, -8
 142              		.cfi_offset 14, -4
 143 0002 8DB0     		sub	sp, sp, #52
 144              	.LCFI4:
 145              		.cfi_def_cfa_offset 64
 138:Core/Src/Drivers/Encoder/encoder.c ****   TIM_Encoder_InitTypeDef sConfig = {0};
 146              		.loc 1 138 3 view .LVU41
 147              		.loc 1 138 27 is_stmt 0 view .LVU42
 148 0004 2422     		movs	r2, #36
 149 0006 0021     		movs	r1, #0
 150 0008 03A8     		add	r0, sp, #12
ARM GAS  C:\Users\ACER\AppData\Local\Temp\ccRn6DSV.s 			page 6


 151 000a FFF7FEFF 		bl	memset
 152              	.LVL3:
 139:Core/Src/Drivers/Encoder/encoder.c ****   TIM_MasterConfigTypeDef sMasterConfig = {0};
 153              		.loc 1 139 3 is_stmt 1 view .LVU43
 154              		.loc 1 139 27 is_stmt 0 view .LVU44
 155 000e 0025     		movs	r5, #0
 156 0010 0195     		str	r5, [sp, #4]
 157 0012 0295     		str	r5, [sp, #8]
 140:Core/Src/Drivers/Encoder/encoder.c **** 
 141:Core/Src/Drivers/Encoder/encoder.c ****   htim4.Instance = TIM4;
 158              		.loc 1 141 3 is_stmt 1 view .LVU45
 159              		.loc 1 141 18 is_stmt 0 view .LVU46
 160 0014 0D4C     		ldr	r4, .L7
 161 0016 0E4B     		ldr	r3, .L7+4
 162 0018 2360     		str	r3, [r4]
 142:Core/Src/Drivers/Encoder/encoder.c ****   htim4.Init.Prescaler = 0;
 163              		.loc 1 142 3 is_stmt 1 view .LVU47
 164              		.loc 1 142 24 is_stmt 0 view .LVU48
 165 001a 6560     		str	r5, [r4, #4]
 143:Core/Src/Drivers/Encoder/encoder.c ****   htim4.Init.CounterMode = TIM_COUNTERMODE_UP;
 166              		.loc 1 143 3 is_stmt 1 view .LVU49
 167              		.loc 1 143 26 is_stmt 0 view .LVU50
 168 001c A560     		str	r5, [r4, #8]
 144:Core/Src/Drivers/Encoder/encoder.c ****   htim4.Init.Period = 65535;
 169              		.loc 1 144 3 is_stmt 1 view .LVU51
 170              		.loc 1 144 21 is_stmt 0 view .LVU52
 171 001e 4FF6FF73 		movw	r3, #65535
 172 0022 E360     		str	r3, [r4, #12]
 145:Core/Src/Drivers/Encoder/encoder.c ****   htim4.Init.ClockDivision = TIM_CLOCKDIVISION_DIV1;
 173              		.loc 1 145 3 is_stmt 1 view .LVU53
 174              		.loc 1 145 28 is_stmt 0 view .LVU54
 175 0024 2561     		str	r5, [r4, #16]
 146:Core/Src/Drivers/Encoder/encoder.c ****   htim4.Init.AutoReloadPreload = TIM_AUTORELOAD_PRELOAD_DISABLE;
 176              		.loc 1 146 3 is_stmt 1 view .LVU55
 177              		.loc 1 146 32 is_stmt 0 view .LVU56
 178 0026 A561     		str	r5, [r4, #24]
 147:Core/Src/Drivers/Encoder/encoder.c ****   sConfig.EncoderMode = TIM_ENCODERMODE_TI12;
 179              		.loc 1 147 3 is_stmt 1 view .LVU57
 180              		.loc 1 147 23 is_stmt 0 view .LVU58
 181 0028 0323     		movs	r3, #3
 182 002a 0393     		str	r3, [sp, #12]
 148:Core/Src/Drivers/Encoder/encoder.c ****   sConfig.IC1Polarity = TIM_ICPOLARITY_RISING;
 183              		.loc 1 148 3 is_stmt 1 view .LVU59
 149:Core/Src/Drivers/Encoder/encoder.c ****   sConfig.IC1Selection = TIM_ICSELECTION_DIRECTTI;
 184              		.loc 1 149 3 view .LVU60
 185              		.loc 1 149 24 is_stmt 0 view .LVU61
 186 002c 0123     		movs	r3, #1
 187 002e 0593     		str	r3, [sp, #20]
 150:Core/Src/Drivers/Encoder/encoder.c ****   sConfig.IC1Prescaler = TIM_ICPSC_DIV1;
 188              		.loc 1 150 3 is_stmt 1 view .LVU62
 151:Core/Src/Drivers/Encoder/encoder.c ****   sConfig.IC1Filter = 0;
 189              		.loc 1 151 3 view .LVU63
 152:Core/Src/Drivers/Encoder/encoder.c ****   sConfig.IC2Polarity = TIM_ICPOLARITY_RISING;
 190              		.loc 1 152 3 view .LVU64
 153:Core/Src/Drivers/Encoder/encoder.c ****   sConfig.IC2Selection = TIM_ICSELECTION_DIRECTTI;
 191              		.loc 1 153 3 view .LVU65
 192              		.loc 1 153 24 is_stmt 0 view .LVU66
ARM GAS  C:\Users\ACER\AppData\Local\Temp\ccRn6DSV.s 			page 7


 193 0030 0993     		str	r3, [sp, #36]
 154:Core/Src/Drivers/Encoder/encoder.c ****   sConfig.IC2Prescaler = TIM_ICPSC_DIV1;
 194              		.loc 1 154 3 is_stmt 1 view .LVU67
 155:Core/Src/Drivers/Encoder/encoder.c ****   sConfig.IC2Filter = 0;
 195              		.loc 1 155 3 view .LVU68
 156:Core/Src/Drivers/Encoder/encoder.c ****   if (HAL_TIM_Encoder_Init(&htim4, &sConfig) != HAL_OK)
 196              		.loc 1 156 3 view .LVU69
 197              		.loc 1 156 7 is_stmt 0 view .LVU70
 198 0032 03A9     		add	r1, sp, #12
 199 0034 2046     		mov	r0, r4
 200 0036 FFF7FEFF 		bl	HAL_TIM_Encoder_Init
 201              	.LVL4:
 157:Core/Src/Drivers/Encoder/encoder.c ****   {
 158:Core/Src/Drivers/Encoder/encoder.c ****     // Error_Handler();
 159:Core/Src/Drivers/Encoder/encoder.c ****   }
 202              		.loc 1 159 3 is_stmt 1 view .LVU71
 160:Core/Src/Drivers/Encoder/encoder.c ****   sMasterConfig.MasterOutputTrigger = TIM_TRGO_RESET;
 203              		.loc 1 160 3 view .LVU72
 204              		.loc 1 160 37 is_stmt 0 view .LVU73
 205 003a 0195     		str	r5, [sp, #4]
 161:Core/Src/Drivers/Encoder/encoder.c ****   sMasterConfig.MasterSlaveMode = TIM_MASTERSLAVEMODE_DISABLE;
 206              		.loc 1 161 3 is_stmt 1 view .LVU74
 207              		.loc 1 161 33 is_stmt 0 view .LVU75
 208 003c 0295     		str	r5, [sp, #8]
 162:Core/Src/Drivers/Encoder/encoder.c ****   if (HAL_TIMEx_MasterConfigSynchronization(&htim4, &sMasterConfig) != HAL_OK)
 209              		.loc 1 162 3 is_stmt 1 view .LVU76
 210              		.loc 1 162 7 is_stmt 0 view .LVU77
 211 003e 01A9     		add	r1, sp, #4
 212 0040 2046     		mov	r0, r4
 213 0042 FFF7FEFF 		bl	HAL_TIMEx_MasterConfigSynchronization
 214              	.LVL5:
 163:Core/Src/Drivers/Encoder/encoder.c ****   {
 164:Core/Src/Drivers/Encoder/encoder.c ****     // Error_Handler();
 165:Core/Src/Drivers/Encoder/encoder.c ****   }
 215              		.loc 1 165 3 is_stmt 1 view .LVU78
 166:Core/Src/Drivers/Encoder/encoder.c **** }
 216              		.loc 1 166 1 is_stmt 0 view .LVU79
 217 0046 0DB0     		add	sp, sp, #52
 218              	.LCFI5:
 219              		.cfi_def_cfa_offset 12
 220              		@ sp needed
 221 0048 30BD     		pop	{r4, r5, pc}
 222              	.L8:
 223 004a 00BF     		.align	2
 224              	.L7:
 225 004c 00000000 		.word	htim4
 226 0050 00080040 		.word	1073743872
 227              		.cfi_endproc
 228              	.LFE175:
 230              		.section	.text.MX_TIM7_Init,"ax",%progbits
 231              		.align	1
 232              		.syntax unified
 233              		.thumb
 234              		.thumb_func
 236              	MX_TIM7_Init:
 237              	.LFB176:
 167:Core/Src/Drivers/Encoder/encoder.c **** 
ARM GAS  C:\Users\ACER\AppData\Local\Temp\ccRn6DSV.s 			page 8


 168:Core/Src/Drivers/Encoder/encoder.c **** /**
 169:Core/Src/Drivers/Encoder/encoder.c ****   * @brief TIM7 Initialization Function
 170:Core/Src/Drivers/Encoder/encoder.c ****   * @param None
 171:Core/Src/Drivers/Encoder/encoder.c ****   * @retval None
 172:Core/Src/Drivers/Encoder/encoder.c ****   */
 173:Core/Src/Drivers/Encoder/encoder.c **** static void MX_TIM7_Init(void)
 174:Core/Src/Drivers/Encoder/encoder.c **** {
 238              		.loc 1 174 1 is_stmt 1 view -0
 239              		.cfi_startproc
 240              		@ args = 0, pretend = 0, frame = 8
 241              		@ frame_needed = 0, uses_anonymous_args = 0
 242 0000 30B5     		push	{r4, r5, lr}
 243              	.LCFI6:
 244              		.cfi_def_cfa_offset 12
 245              		.cfi_offset 4, -12
 246              		.cfi_offset 5, -8
 247              		.cfi_offset 14, -4
 248 0002 83B0     		sub	sp, sp, #12
 249              	.LCFI7:
 250              		.cfi_def_cfa_offset 24
 175:Core/Src/Drivers/Encoder/encoder.c ****   TIM_MasterConfigTypeDef sMasterConfig = {0};
 251              		.loc 1 175 3 view .LVU81
 252              		.loc 1 175 27 is_stmt 0 view .LVU82
 253 0004 0025     		movs	r5, #0
 254 0006 0095     		str	r5, [sp]
 255 0008 0195     		str	r5, [sp, #4]
 176:Core/Src/Drivers/Encoder/encoder.c **** 
 177:Core/Src/Drivers/Encoder/encoder.c ****   htim7.Instance = TIM7;
 256              		.loc 1 177 3 is_stmt 1 view .LVU83
 257              		.loc 1 177 18 is_stmt 0 view .LVU84
 258 000a 0B4C     		ldr	r4, .L11
 259 000c 0B4B     		ldr	r3, .L11+4
 260 000e 2360     		str	r3, [r4]
 178:Core/Src/Drivers/Encoder/encoder.c ****   htim7.Init.Prescaler = 84;
 261              		.loc 1 178 3 is_stmt 1 view .LVU85
 262              		.loc 1 178 24 is_stmt 0 view .LVU86
 263 0010 5423     		movs	r3, #84
 264 0012 6360     		str	r3, [r4, #4]
 179:Core/Src/Drivers/Encoder/encoder.c ****   htim7.Init.CounterMode = TIM_COUNTERMODE_UP;
 265              		.loc 1 179 3 is_stmt 1 view .LVU87
 266              		.loc 1 179 26 is_stmt 0 view .LVU88
 267 0014 A560     		str	r5, [r4, #8]
 180:Core/Src/Drivers/Encoder/encoder.c ****   htim7.Init.Period = 500;
 268              		.loc 1 180 3 is_stmt 1 view .LVU89
 269              		.loc 1 180 21 is_stmt 0 view .LVU90
 270 0016 4FF4FA73 		mov	r3, #500
 271 001a E360     		str	r3, [r4, #12]
 181:Core/Src/Drivers/Encoder/encoder.c ****   htim7.Init.AutoReloadPreload = TIM_AUTORELOAD_PRELOAD_ENABLE;
 272              		.loc 1 181 3 is_stmt 1 view .LVU91
 273              		.loc 1 181 32 is_stmt 0 view .LVU92
 274 001c 8023     		movs	r3, #128
 275 001e A361     		str	r3, [r4, #24]
 182:Core/Src/Drivers/Encoder/encoder.c ****   if (HAL_TIM_Base_Init(&htim7) != HAL_OK)
 276              		.loc 1 182 3 is_stmt 1 view .LVU93
 277              		.loc 1 182 7 is_stmt 0 view .LVU94
 278 0020 2046     		mov	r0, r4
 279 0022 FFF7FEFF 		bl	HAL_TIM_Base_Init
ARM GAS  C:\Users\ACER\AppData\Local\Temp\ccRn6DSV.s 			page 9


 280              	.LVL6:
 183:Core/Src/Drivers/Encoder/encoder.c ****   {
 184:Core/Src/Drivers/Encoder/encoder.c ****     // Error_Handler();
 185:Core/Src/Drivers/Encoder/encoder.c ****   }
 281              		.loc 1 185 3 is_stmt 1 view .LVU95
 186:Core/Src/Drivers/Encoder/encoder.c **** 
 187:Core/Src/Drivers/Encoder/encoder.c ****   sMasterConfig.MasterOutputTrigger = TIM_TRGO_RESET;
 282              		.loc 1 187 3 view .LVU96
 283              		.loc 1 187 37 is_stmt 0 view .LVU97
 284 0026 0095     		str	r5, [sp]
 188:Core/Src/Drivers/Encoder/encoder.c ****   sMasterConfig.MasterSlaveMode = TIM_MASTERSLAVEMODE_DISABLE;
 285              		.loc 1 188 3 is_stmt 1 view .LVU98
 286              		.loc 1 188 33 is_stmt 0 view .LVU99
 287 0028 0195     		str	r5, [sp, #4]
 189:Core/Src/Drivers/Encoder/encoder.c ****   if (HAL_TIMEx_MasterConfigSynchronization(&htim7, &sMasterConfig) != HAL_OK)
 288              		.loc 1 189 3 is_stmt 1 view .LVU100
 289              		.loc 1 189 7 is_stmt 0 view .LVU101
 290 002a 6946     		mov	r1, sp
 291 002c 2046     		mov	r0, r4
 292 002e FFF7FEFF 		bl	HAL_TIMEx_MasterConfigSynchronization
 293              	.LVL7:
 190:Core/Src/Drivers/Encoder/encoder.c ****   {
 191:Core/Src/Drivers/Encoder/encoder.c ****     // Error_Handler();
 192:Core/Src/Drivers/Encoder/encoder.c ****   }
 294              		.loc 1 192 3 is_stmt 1 view .LVU102
 193:Core/Src/Drivers/Encoder/encoder.c **** }
 295              		.loc 1 193 1 is_stmt 0 view .LVU103
 296 0032 03B0     		add	sp, sp, #12
 297              	.LCFI8:
 298              		.cfi_def_cfa_offset 12
 299              		@ sp needed
 300 0034 30BD     		pop	{r4, r5, pc}
 301              	.L12:
 302 0036 00BF     		.align	2
 303              	.L11:
 304 0038 00000000 		.word	htim7
 305 003c 00140040 		.word	1073746944
 306              		.cfi_endproc
 307              	.LFE176:
 309              		.section	.text.HAL_TIM_PeriodElapsedCallback,"ax",%progbits
 310              		.align	1
 311              		.global	HAL_TIM_PeriodElapsedCallback
 312              		.syntax unified
 313              		.thumb
 314              		.thumb_func
 316              	HAL_TIM_PeriodElapsedCallback:
 317              	.LVL8:
 318              	.LFB168:
  23:Core/Src/Drivers/Encoder/encoder.c ****   BaseType_t xHigherPriorityTaskWoken = pdFALSE;
 319              		.loc 1 23 1 is_stmt 1 view -0
 320              		.cfi_startproc
 321              		@ args = 0, pretend = 0, frame = 8
 322              		@ frame_needed = 0, uses_anonymous_args = 0
  23:Core/Src/Drivers/Encoder/encoder.c ****   BaseType_t xHigherPriorityTaskWoken = pdFALSE;
 323              		.loc 1 23 1 is_stmt 0 view .LVU105
 324 0000 00B5     		push	{lr}
 325              	.LCFI9:
ARM GAS  C:\Users\ACER\AppData\Local\Temp\ccRn6DSV.s 			page 10


 326              		.cfi_def_cfa_offset 4
 327              		.cfi_offset 14, -4
 328 0002 83B0     		sub	sp, sp, #12
 329              	.LCFI10:
 330              		.cfi_def_cfa_offset 16
  24:Core/Src/Drivers/Encoder/encoder.c ****   if(htim->Instance == TIM7)
 331              		.loc 1 24 3 is_stmt 1 view .LVU106
  24:Core/Src/Drivers/Encoder/encoder.c ****   if(htim->Instance == TIM7)
 332              		.loc 1 24 14 is_stmt 0 view .LVU107
 333 0004 0023     		movs	r3, #0
 334 0006 0193     		str	r3, [sp, #4]
  25:Core/Src/Drivers/Encoder/encoder.c ****   {
 335              		.loc 1 25 3 is_stmt 1 view .LVU108
  25:Core/Src/Drivers/Encoder/encoder.c ****   {
 336              		.loc 1 25 10 is_stmt 0 view .LVU109
 337 0008 0268     		ldr	r2, [r0]
  25:Core/Src/Drivers/Encoder/encoder.c ****   {
 338              		.loc 1 25 5 view .LVU110
 339 000a 0D4B     		ldr	r3, .L18
 340 000c 9A42     		cmp	r2, r3
 341 000e 0ED0     		beq	.L17
 342              	.LVL9:
 343              	.L14:
  31:Core/Src/Drivers/Encoder/encoder.c **** }
 344              		.loc 1 31 3 is_stmt 1 view .LVU111
  31:Core/Src/Drivers/Encoder/encoder.c **** }
 345              		.loc 1 31 3 view .LVU112
 346 0010 019B     		ldr	r3, [sp, #4]
 347 0012 4BB1     		cbz	r3, .L13
  31:Core/Src/Drivers/Encoder/encoder.c **** }
 348              		.loc 1 31 3 discriminator 1 view .LVU113
 349 0014 4FF0E023 		mov	r3, #-536813568
 350 0018 4FF08052 		mov	r2, #268435456
 351 001c C3F8042D 		str	r2, [r3, #3332]
  31:Core/Src/Drivers/Encoder/encoder.c **** }
 352              		.loc 1 31 3 discriminator 1 view .LVU114
 353              		.syntax unified
 354              	@ 31 "Core/Src/Drivers/Encoder/encoder.c" 1
 355 0020 BFF34F8F 		dsb
 356              	@ 0 "" 2
  31:Core/Src/Drivers/Encoder/encoder.c **** }
 357              		.loc 1 31 3 discriminator 1 view .LVU115
 358              	@ 31 "Core/Src/Drivers/Encoder/encoder.c" 1
 359 0024 BFF36F8F 		isb
 360              	@ 0 "" 2
  31:Core/Src/Drivers/Encoder/encoder.c **** }
 361              		.loc 1 31 3 discriminator 3 view .LVU116
  31:Core/Src/Drivers/Encoder/encoder.c **** }
 362              		.loc 1 31 3 discriminator 3 view .LVU117
 363              		.thumb
 364              		.syntax unified
 365              	.L13:
  32:Core/Src/Drivers/Encoder/encoder.c **** 
 366              		.loc 1 32 1 is_stmt 0 view .LVU118
 367 0028 03B0     		add	sp, sp, #12
 368              	.LCFI11:
 369              		.cfi_remember_state
ARM GAS  C:\Users\ACER\AppData\Local\Temp\ccRn6DSV.s 			page 11


 370              		.cfi_def_cfa_offset 4
 371              		@ sp needed
 372 002a 5DF804FB 		ldr	pc, [sp], #4
 373              	.LVL10:
 374              	.L17:
 375              	.LCFI12:
 376              		.cfi_restore_state
 377              	.LBB2:
  27:Core/Src/Drivers/Encoder/encoder.c ****     ao_estimator->postFromISR(ao_estimator, &time_evt, &xHigherPriorityTaskWoken);
 378              		.loc 1 27 5 is_stmt 1 view .LVU119
  28:Core/Src/Drivers/Encoder/encoder.c ****   }
 379              		.loc 1 28 5 view .LVU120
  28:Core/Src/Drivers/Encoder/encoder.c ****   }
 380              		.loc 1 28 17 is_stmt 0 view .LVU121
 381 002e 054B     		ldr	r3, .L18+4
 382 0030 1868     		ldr	r0, [r3]
 383              	.LVL11:
  28:Core/Src/Drivers/Encoder/encoder.c ****   }
 384              		.loc 1 28 17 view .LVU122
 385 0032 D0F8C430 		ldr	r3, [r0, #196]
  28:Core/Src/Drivers/Encoder/encoder.c ****   }
 386              		.loc 1 28 5 view .LVU123
 387 0036 01AA     		add	r2, sp, #4
 388 0038 0349     		ldr	r1, .L18+8
 389 003a 9847     		blx	r3
 390              	.LVL12:
 391 003c E8E7     		b	.L14
 392              	.L19:
 393 003e 00BF     		.align	2
 394              	.L18:
 395 0040 00140040 		.word	1073746944
 396 0044 00000000 		.word	ao_estimator
 397 0048 00000000 		.word	time_evt.0
 398              	.LBE2:
 399              		.cfi_endproc
 400              	.LFE168:
 402              		.section	.text.HAL_TIM_IC_CaptureCallback,"ax",%progbits
 403              		.align	1
 404              		.global	HAL_TIM_IC_CaptureCallback
 405              		.syntax unified
 406              		.thumb
 407              		.thumb_func
 409              	HAL_TIM_IC_CaptureCallback:
 410              	.LVL13:
 411              	.LFB169:
  40:Core/Src/Drivers/Encoder/encoder.c ****   if(htim->Instance == TIM4)
 412              		.loc 1 40 1 is_stmt 1 view -0
 413              		.cfi_startproc
 414              		@ args = 0, pretend = 0, frame = 0
 415              		@ frame_needed = 0, uses_anonymous_args = 0
 416              		@ link register save eliminated.
  41:Core/Src/Drivers/Encoder/encoder.c ****   {
 417              		.loc 1 41 3 view .LVU125
  41:Core/Src/Drivers/Encoder/encoder.c ****   {
 418              		.loc 1 41 10 is_stmt 0 view .LVU126
 419 0000 0368     		ldr	r3, [r0]
  41:Core/Src/Drivers/Encoder/encoder.c ****   {
ARM GAS  C:\Users\ACER\AppData\Local\Temp\ccRn6DSV.s 			page 12


 420              		.loc 1 41 5 view .LVU127
 421 0002 074A     		ldr	r2, .L25
 422 0004 9342     		cmp	r3, r2
 423 0006 03D0     		beq	.L23
  46:Core/Src/Drivers/Encoder/encoder.c ****   {
 424              		.loc 1 46 8 is_stmt 1 view .LVU128
  46:Core/Src/Drivers/Encoder/encoder.c ****   {
 425              		.loc 1 46 10 is_stmt 0 view .LVU129
 426 0008 064A     		ldr	r2, .L25+4
 427 000a 9342     		cmp	r3, r2
 428 000c 04D0     		beq	.L24
 429              	.L20:
  51:Core/Src/Drivers/Encoder/encoder.c **** 
 430              		.loc 1 51 1 view .LVU130
 431 000e 7047     		bx	lr
 432              	.L23:
  44:Core/Src/Drivers/Encoder/encoder.c ****   }
 433              		.loc 1 44 5 is_stmt 1 view .LVU131
  44:Core/Src/Drivers/Encoder/encoder.c ****   }
 434              		.loc 1 44 41 is_stmt 0 view .LVU132
 435 0010 5A6A     		ldr	r2, [r3, #36]
  44:Core/Src/Drivers/Encoder/encoder.c ****   }
 436              		.loc 1 44 19 view .LVU133
 437 0012 054B     		ldr	r3, .L25+8
 438 0014 1A80     		strh	r2, [r3]	@ movhi
 439 0016 7047     		bx	lr
 440              	.L24:
  49:Core/Src/Drivers/Encoder/encoder.c ****   }
 441              		.loc 1 49 5 is_stmt 1 view .LVU134
  49:Core/Src/Drivers/Encoder/encoder.c ****   }
 442              		.loc 1 49 42 is_stmt 0 view .LVU135
 443 0018 5A6A     		ldr	r2, [r3, #36]
  49:Core/Src/Drivers/Encoder/encoder.c ****   }
 444              		.loc 1 49 20 view .LVU136
 445 001a 044B     		ldr	r3, .L25+12
 446 001c 1A80     		strh	r2, [r3]	@ movhi
  51:Core/Src/Drivers/Encoder/encoder.c **** 
 447              		.loc 1 51 1 view .LVU137
 448 001e F6E7     		b	.L20
 449              	.L26:
 450              		.align	2
 451              	.L25:
 452 0020 00080040 		.word	1073743872
 453 0024 00040040 		.word	1073742848
 454 0028 00000000 		.word	motor_counter
 455 002c 00000000 		.word	pendlm_counter
 456              		.cfi_endproc
 457              	.LFE169:
 459              		.section	.text.TIM3_IRQHandler,"ax",%progbits
 460              		.align	1
 461              		.global	TIM3_IRQHandler
 462              		.syntax unified
 463              		.thumb
 464              		.thumb_func
 466              	TIM3_IRQHandler:
 467              	.LFB170:
  57:Core/Src/Drivers/Encoder/encoder.c ****   HAL_TIM_IRQHandler(&htim3);
ARM GAS  C:\Users\ACER\AppData\Local\Temp\ccRn6DSV.s 			page 13


 468              		.loc 1 57 1 is_stmt 1 view -0
 469              		.cfi_startproc
 470              		@ args = 0, pretend = 0, frame = 0
 471              		@ frame_needed = 0, uses_anonymous_args = 0
 472 0000 08B5     		push	{r3, lr}
 473              	.LCFI13:
 474              		.cfi_def_cfa_offset 8
 475              		.cfi_offset 3, -8
 476              		.cfi_offset 14, -4
  58:Core/Src/Drivers/Encoder/encoder.c **** }
 477              		.loc 1 58 3 view .LVU139
 478 0002 0248     		ldr	r0, .L29
 479 0004 FFF7FEFF 		bl	HAL_TIM_IRQHandler
 480              	.LVL14:
  59:Core/Src/Drivers/Encoder/encoder.c **** 
 481              		.loc 1 59 1 is_stmt 0 view .LVU140
 482 0008 08BD     		pop	{r3, pc}
 483              	.L30:
 484 000a 00BF     		.align	2
 485              	.L29:
 486 000c 00000000 		.word	htim3
 487              		.cfi_endproc
 488              	.LFE170:
 490              		.section	.text.TIM4_IRQHandler,"ax",%progbits
 491              		.align	1
 492              		.global	TIM4_IRQHandler
 493              		.syntax unified
 494              		.thumb
 495              		.thumb_func
 497              	TIM4_IRQHandler:
 498              	.LFB171:
  65:Core/Src/Drivers/Encoder/encoder.c ****   HAL_TIM_IRQHandler(&htim4);
 499              		.loc 1 65 1 is_stmt 1 view -0
 500              		.cfi_startproc
 501              		@ args = 0, pretend = 0, frame = 0
 502              		@ frame_needed = 0, uses_anonymous_args = 0
 503 0000 08B5     		push	{r3, lr}
 504              	.LCFI14:
 505              		.cfi_def_cfa_offset 8
 506              		.cfi_offset 3, -8
 507              		.cfi_offset 14, -4
  66:Core/Src/Drivers/Encoder/encoder.c **** }
 508              		.loc 1 66 3 view .LVU142
 509 0002 0248     		ldr	r0, .L33
 510 0004 FFF7FEFF 		bl	HAL_TIM_IRQHandler
 511              	.LVL15:
  67:Core/Src/Drivers/Encoder/encoder.c **** 
 512              		.loc 1 67 1 is_stmt 0 view .LVU143
 513 0008 08BD     		pop	{r3, pc}
 514              	.L34:
 515 000a 00BF     		.align	2
 516              	.L33:
 517 000c 00000000 		.word	htim4
 518              		.cfi_endproc
 519              	.LFE171:
 521              		.section	.text.TIM7_IRQHandler,"ax",%progbits
 522              		.align	1
ARM GAS  C:\Users\ACER\AppData\Local\Temp\ccRn6DSV.s 			page 14


 523              		.global	TIM7_IRQHandler
 524              		.syntax unified
 525              		.thumb
 526              		.thumb_func
 528              	TIM7_IRQHandler:
 529              	.LFB172:
  73:Core/Src/Drivers/Encoder/encoder.c ****   HAL_TIM_IRQHandler(&htim7);
 530              		.loc 1 73 1 is_stmt 1 view -0
 531              		.cfi_startproc
 532              		@ args = 0, pretend = 0, frame = 0
 533              		@ frame_needed = 0, uses_anonymous_args = 0
 534 0000 08B5     		push	{r3, lr}
 535              	.LCFI15:
 536              		.cfi_def_cfa_offset 8
 537              		.cfi_offset 3, -8
 538              		.cfi_offset 14, -4
  74:Core/Src/Drivers/Encoder/encoder.c **** }
 539              		.loc 1 74 3 view .LVU145
 540 0002 0248     		ldr	r0, .L37
 541 0004 FFF7FEFF 		bl	HAL_TIM_IRQHandler
 542              	.LVL16:
  75:Core/Src/Drivers/Encoder/encoder.c **** 
 543              		.loc 1 75 1 is_stmt 0 view .LVU146
 544 0008 08BD     		pop	{r3, pc}
 545              	.L38:
 546 000a 00BF     		.align	2
 547              	.L37:
 548 000c 00000000 		.word	htim7
 549              		.cfi_endproc
 550              	.LFE172:
 552              		.section	.text.Driver_Encoder_Init,"ax",%progbits
 553              		.align	1
 554              		.global	Driver_Encoder_Init
 555              		.syntax unified
 556              		.thumb
 557              		.thumb_func
 559              	Driver_Encoder_Init:
 560              	.LFB173:
  81:Core/Src/Drivers/Encoder/encoder.c ****   MX_TIM3_Init(); // Motor encoder
 561              		.loc 1 81 1 is_stmt 1 view -0
 562              		.cfi_startproc
 563              		@ args = 0, pretend = 0, frame = 0
 564              		@ frame_needed = 0, uses_anonymous_args = 0
 565 0000 08B5     		push	{r3, lr}
 566              	.LCFI16:
 567              		.cfi_def_cfa_offset 8
 568              		.cfi_offset 3, -8
 569              		.cfi_offset 14, -4
  82:Core/Src/Drivers/Encoder/encoder.c ****   MX_TIM4_Init(); // Pendullum encoder
 570              		.loc 1 82 3 view .LVU148
 571 0002 FFF7FEFF 		bl	MX_TIM3_Init
 572              	.LVL17:
  83:Core/Src/Drivers/Encoder/encoder.c ****   MX_TIM7_Init(); // Basic timer for generating periodic task running at 2kHz
 573              		.loc 1 83 3 view .LVU149
 574 0006 FFF7FEFF 		bl	MX_TIM4_Init
 575              	.LVL18:
  84:Core/Src/Drivers/Encoder/encoder.c **** 
ARM GAS  C:\Users\ACER\AppData\Local\Temp\ccRn6DSV.s 			page 15


 576              		.loc 1 84 3 view .LVU150
 577 000a FFF7FEFF 		bl	MX_TIM7_Init
 578              	.LVL19:
  89:Core/Src/Drivers/Encoder/encoder.c **** 
 579              		.loc 1 89 1 is_stmt 0 view .LVU151
 580 000e 08BD     		pop	{r3, pc}
 581              		.cfi_endproc
 582              	.LFE173:
 584              		.section	.text.HAL_TIM_Encoder_MspInit,"ax",%progbits
 585              		.align	1
 586              		.global	HAL_TIM_Encoder_MspInit
 587              		.syntax unified
 588              		.thumb
 589              		.thumb_func
 591              	HAL_TIM_Encoder_MspInit:
 592              	.LVL20:
 593              	.LFB177:
 194:Core/Src/Drivers/Encoder/encoder.c **** 
 195:Core/Src/Drivers/Encoder/encoder.c **** /**
 196:Core/Src/Drivers/Encoder/encoder.c **** * @brief TIM_Encoder MSP Initialization
 197:Core/Src/Drivers/Encoder/encoder.c **** * This function configures the hardware resources used in this example
 198:Core/Src/Drivers/Encoder/encoder.c **** * @param htim_encoder: TIM_Encoder handle pointer
 199:Core/Src/Drivers/Encoder/encoder.c **** * @retval None
 200:Core/Src/Drivers/Encoder/encoder.c **** */
 201:Core/Src/Drivers/Encoder/encoder.c **** void HAL_TIM_Encoder_MspInit(TIM_HandleTypeDef* htim_encoder)
 202:Core/Src/Drivers/Encoder/encoder.c **** {
 594              		.loc 1 202 1 is_stmt 1 view -0
 595              		.cfi_startproc
 596              		@ args = 0, pretend = 0, frame = 40
 597              		@ frame_needed = 0, uses_anonymous_args = 0
 598              		.loc 1 202 1 is_stmt 0 view .LVU153
 599 0000 10B5     		push	{r4, lr}
 600              	.LCFI17:
 601              		.cfi_def_cfa_offset 8
 602              		.cfi_offset 4, -8
 603              		.cfi_offset 14, -4
 604 0002 8AB0     		sub	sp, sp, #40
 605              	.LCFI18:
 606              		.cfi_def_cfa_offset 48
 203:Core/Src/Drivers/Encoder/encoder.c ****   GPIO_InitTypeDef GPIO_InitStruct = {0};
 607              		.loc 1 203 3 is_stmt 1 view .LVU154
 608              		.loc 1 203 20 is_stmt 0 view .LVU155
 609 0004 0023     		movs	r3, #0
 610 0006 0593     		str	r3, [sp, #20]
 611 0008 0693     		str	r3, [sp, #24]
 612 000a 0793     		str	r3, [sp, #28]
 613 000c 0893     		str	r3, [sp, #32]
 614 000e 0993     		str	r3, [sp, #36]
 204:Core/Src/Drivers/Encoder/encoder.c ****   if(htim_encoder->Instance==TIM3)
 615              		.loc 1 204 3 is_stmt 1 view .LVU156
 616              		.loc 1 204 18 is_stmt 0 view .LVU157
 617 0010 0368     		ldr	r3, [r0]
 618              		.loc 1 204 5 view .LVU158
 619 0012 2E4A     		ldr	r2, .L47
 620 0014 9342     		cmp	r3, r2
 621 0016 04D0     		beq	.L45
 205:Core/Src/Drivers/Encoder/encoder.c ****   {
ARM GAS  C:\Users\ACER\AppData\Local\Temp\ccRn6DSV.s 			page 16


 206:Core/Src/Drivers/Encoder/encoder.c ****     /* Peripheral clock enable */
 207:Core/Src/Drivers/Encoder/encoder.c ****     __HAL_RCC_TIM3_CLK_ENABLE();
 208:Core/Src/Drivers/Encoder/encoder.c ****     __HAL_RCC_GPIOA_CLK_ENABLE();
 209:Core/Src/Drivers/Encoder/encoder.c **** 
 210:Core/Src/Drivers/Encoder/encoder.c ****     /**TIM3 GPIO Configuration
 211:Core/Src/Drivers/Encoder/encoder.c ****     PA6     ------> TIM3_CH1
 212:Core/Src/Drivers/Encoder/encoder.c ****     PA7     ------> TIM3_CH2
 213:Core/Src/Drivers/Encoder/encoder.c ****     */
 214:Core/Src/Drivers/Encoder/encoder.c ****     GPIO_InitStruct.Pin = GPIO_PIN_6|GPIO_PIN_7;
 215:Core/Src/Drivers/Encoder/encoder.c ****     GPIO_InitStruct.Mode = GPIO_MODE_AF_PP;
 216:Core/Src/Drivers/Encoder/encoder.c ****     GPIO_InitStruct.Pull = GPIO_PULLUP;
 217:Core/Src/Drivers/Encoder/encoder.c ****     GPIO_InitStruct.Speed = GPIO_SPEED_FREQ_LOW;
 218:Core/Src/Drivers/Encoder/encoder.c ****     GPIO_InitStruct.Alternate = GPIO_AF2_TIM3;
 219:Core/Src/Drivers/Encoder/encoder.c ****     HAL_GPIO_Init(GPIOA, &GPIO_InitStruct);
 220:Core/Src/Drivers/Encoder/encoder.c **** 
 221:Core/Src/Drivers/Encoder/encoder.c ****     /* TIM3 interrupt Init */
 222:Core/Src/Drivers/Encoder/encoder.c ****     HAL_NVIC_SetPriority(TIM3_IRQn, 7, 0);
 223:Core/Src/Drivers/Encoder/encoder.c ****     HAL_NVIC_EnableIRQ(TIM3_IRQn);
 224:Core/Src/Drivers/Encoder/encoder.c ****   }
 225:Core/Src/Drivers/Encoder/encoder.c ****   else if(htim_encoder->Instance==TIM4)
 622              		.loc 1 225 8 is_stmt 1 view .LVU159
 623              		.loc 1 225 10 is_stmt 0 view .LVU160
 624 0018 2D4A     		ldr	r2, .L47+4
 625 001a 9342     		cmp	r3, r2
 626 001c 2BD0     		beq	.L46
 627              	.LVL21:
 628              	.L41:
 226:Core/Src/Drivers/Encoder/encoder.c ****   {
 227:Core/Src/Drivers/Encoder/encoder.c ****     /* Peripheral clock enable */
 228:Core/Src/Drivers/Encoder/encoder.c ****     __HAL_RCC_TIM4_CLK_ENABLE();
 229:Core/Src/Drivers/Encoder/encoder.c ****     __HAL_RCC_GPIOD_CLK_ENABLE();
 230:Core/Src/Drivers/Encoder/encoder.c **** 
 231:Core/Src/Drivers/Encoder/encoder.c ****     /**TIM4 GPIO Configuration
 232:Core/Src/Drivers/Encoder/encoder.c ****     PD12     ------> TIM4_CH1
 233:Core/Src/Drivers/Encoder/encoder.c ****     PD13     ------> TIM4_CH2
 234:Core/Src/Drivers/Encoder/encoder.c ****     */
 235:Core/Src/Drivers/Encoder/encoder.c ****     GPIO_InitStruct.Pin = GPIO_PIN_12|GPIO_PIN_13;
 236:Core/Src/Drivers/Encoder/encoder.c ****     GPIO_InitStruct.Mode = GPIO_MODE_AF_PP;
 237:Core/Src/Drivers/Encoder/encoder.c ****     GPIO_InitStruct.Pull = GPIO_PULLUP;
 238:Core/Src/Drivers/Encoder/encoder.c ****     GPIO_InitStruct.Speed = GPIO_SPEED_FREQ_LOW;
 239:Core/Src/Drivers/Encoder/encoder.c ****     GPIO_InitStruct.Alternate = GPIO_AF2_TIM4;
 240:Core/Src/Drivers/Encoder/encoder.c ****     HAL_GPIO_Init(GPIOD, &GPIO_InitStruct);
 241:Core/Src/Drivers/Encoder/encoder.c **** 
 242:Core/Src/Drivers/Encoder/encoder.c ****     /* TIM4 interrupt Init */
 243:Core/Src/Drivers/Encoder/encoder.c ****     HAL_NVIC_SetPriority(TIM4_IRQn, 7, 0);
 244:Core/Src/Drivers/Encoder/encoder.c ****     HAL_NVIC_EnableIRQ(TIM4_IRQn);
 245:Core/Src/Drivers/Encoder/encoder.c ****   }
 246:Core/Src/Drivers/Encoder/encoder.c **** 
 247:Core/Src/Drivers/Encoder/encoder.c **** }
 629              		.loc 1 247 1 view .LVU161
 630 001e 0AB0     		add	sp, sp, #40
 631              	.LCFI19:
 632              		.cfi_remember_state
 633              		.cfi_def_cfa_offset 8
 634              		@ sp needed
 635 0020 10BD     		pop	{r4, pc}
 636              	.LVL22:
ARM GAS  C:\Users\ACER\AppData\Local\Temp\ccRn6DSV.s 			page 17


 637              	.L45:
 638              	.LCFI20:
 639              		.cfi_restore_state
 207:Core/Src/Drivers/Encoder/encoder.c ****     __HAL_RCC_GPIOA_CLK_ENABLE();
 640              		.loc 1 207 5 is_stmt 1 view .LVU162
 641              	.LBB3:
 207:Core/Src/Drivers/Encoder/encoder.c ****     __HAL_RCC_GPIOA_CLK_ENABLE();
 642              		.loc 1 207 5 view .LVU163
 643 0022 0024     		movs	r4, #0
 644 0024 0194     		str	r4, [sp, #4]
 207:Core/Src/Drivers/Encoder/encoder.c ****     __HAL_RCC_GPIOA_CLK_ENABLE();
 645              		.loc 1 207 5 view .LVU164
 646 0026 2B4B     		ldr	r3, .L47+8
 647 0028 1A6C     		ldr	r2, [r3, #64]
 648 002a 42F00202 		orr	r2, r2, #2
 649 002e 1A64     		str	r2, [r3, #64]
 207:Core/Src/Drivers/Encoder/encoder.c ****     __HAL_RCC_GPIOA_CLK_ENABLE();
 650              		.loc 1 207 5 view .LVU165
 651 0030 1A6C     		ldr	r2, [r3, #64]
 652 0032 02F00202 		and	r2, r2, #2
 653 0036 0192     		str	r2, [sp, #4]
 207:Core/Src/Drivers/Encoder/encoder.c ****     __HAL_RCC_GPIOA_CLK_ENABLE();
 654              		.loc 1 207 5 view .LVU166
 655 0038 019A     		ldr	r2, [sp, #4]
 656              	.LBE3:
 207:Core/Src/Drivers/Encoder/encoder.c ****     __HAL_RCC_GPIOA_CLK_ENABLE();
 657              		.loc 1 207 5 view .LVU167
 208:Core/Src/Drivers/Encoder/encoder.c **** 
 658              		.loc 1 208 5 view .LVU168
 659              	.LBB4:
 208:Core/Src/Drivers/Encoder/encoder.c **** 
 660              		.loc 1 208 5 view .LVU169
 661 003a 0294     		str	r4, [sp, #8]
 208:Core/Src/Drivers/Encoder/encoder.c **** 
 662              		.loc 1 208 5 view .LVU170
 663 003c 1A6B     		ldr	r2, [r3, #48]
 664 003e 42F00102 		orr	r2, r2, #1
 665 0042 1A63     		str	r2, [r3, #48]
 208:Core/Src/Drivers/Encoder/encoder.c **** 
 666              		.loc 1 208 5 view .LVU171
 667 0044 1B6B     		ldr	r3, [r3, #48]
 668 0046 03F00103 		and	r3, r3, #1
 669 004a 0293     		str	r3, [sp, #8]
 208:Core/Src/Drivers/Encoder/encoder.c **** 
 670              		.loc 1 208 5 view .LVU172
 671 004c 029B     		ldr	r3, [sp, #8]
 672              	.LBE4:
 208:Core/Src/Drivers/Encoder/encoder.c **** 
 673              		.loc 1 208 5 view .LVU173
 214:Core/Src/Drivers/Encoder/encoder.c ****     GPIO_InitStruct.Mode = GPIO_MODE_AF_PP;
 674              		.loc 1 214 5 view .LVU174
 214:Core/Src/Drivers/Encoder/encoder.c ****     GPIO_InitStruct.Mode = GPIO_MODE_AF_PP;
 675              		.loc 1 214 25 is_stmt 0 view .LVU175
 676 004e C023     		movs	r3, #192
 677 0050 0593     		str	r3, [sp, #20]
 215:Core/Src/Drivers/Encoder/encoder.c ****     GPIO_InitStruct.Pull = GPIO_PULLUP;
 678              		.loc 1 215 5 is_stmt 1 view .LVU176
ARM GAS  C:\Users\ACER\AppData\Local\Temp\ccRn6DSV.s 			page 18


 215:Core/Src/Drivers/Encoder/encoder.c ****     GPIO_InitStruct.Pull = GPIO_PULLUP;
 679              		.loc 1 215 26 is_stmt 0 view .LVU177
 680 0052 0223     		movs	r3, #2
 681 0054 0693     		str	r3, [sp, #24]
 216:Core/Src/Drivers/Encoder/encoder.c ****     GPIO_InitStruct.Speed = GPIO_SPEED_FREQ_LOW;
 682              		.loc 1 216 5 is_stmt 1 view .LVU178
 216:Core/Src/Drivers/Encoder/encoder.c ****     GPIO_InitStruct.Speed = GPIO_SPEED_FREQ_LOW;
 683              		.loc 1 216 26 is_stmt 0 view .LVU179
 684 0056 0122     		movs	r2, #1
 685 0058 0792     		str	r2, [sp, #28]
 217:Core/Src/Drivers/Encoder/encoder.c ****     GPIO_InitStruct.Alternate = GPIO_AF2_TIM3;
 686              		.loc 1 217 5 is_stmt 1 view .LVU180
 218:Core/Src/Drivers/Encoder/encoder.c ****     HAL_GPIO_Init(GPIOA, &GPIO_InitStruct);
 687              		.loc 1 218 5 view .LVU181
 218:Core/Src/Drivers/Encoder/encoder.c ****     HAL_GPIO_Init(GPIOA, &GPIO_InitStruct);
 688              		.loc 1 218 31 is_stmt 0 view .LVU182
 689 005a 0993     		str	r3, [sp, #36]
 219:Core/Src/Drivers/Encoder/encoder.c **** 
 690              		.loc 1 219 5 is_stmt 1 view .LVU183
 691 005c 05A9     		add	r1, sp, #20
 692 005e 1E48     		ldr	r0, .L47+12
 693              	.LVL23:
 219:Core/Src/Drivers/Encoder/encoder.c **** 
 694              		.loc 1 219 5 is_stmt 0 view .LVU184
 695 0060 FFF7FEFF 		bl	HAL_GPIO_Init
 696              	.LVL24:
 222:Core/Src/Drivers/Encoder/encoder.c ****     HAL_NVIC_EnableIRQ(TIM3_IRQn);
 697              		.loc 1 222 5 is_stmt 1 view .LVU185
 698 0064 2246     		mov	r2, r4
 699 0066 0721     		movs	r1, #7
 700 0068 1D20     		movs	r0, #29
 701 006a FFF7FEFF 		bl	HAL_NVIC_SetPriority
 702              	.LVL25:
 223:Core/Src/Drivers/Encoder/encoder.c ****   }
 703              		.loc 1 223 5 view .LVU186
 704 006e 1D20     		movs	r0, #29
 705 0070 FFF7FEFF 		bl	HAL_NVIC_EnableIRQ
 706              	.LVL26:
 707 0074 D3E7     		b	.L41
 708              	.LVL27:
 709              	.L46:
 228:Core/Src/Drivers/Encoder/encoder.c ****     __HAL_RCC_GPIOD_CLK_ENABLE();
 710              		.loc 1 228 5 view .LVU187
 711              	.LBB5:
 228:Core/Src/Drivers/Encoder/encoder.c ****     __HAL_RCC_GPIOD_CLK_ENABLE();
 712              		.loc 1 228 5 view .LVU188
 713 0076 0024     		movs	r4, #0
 714 0078 0394     		str	r4, [sp, #12]
 228:Core/Src/Drivers/Encoder/encoder.c ****     __HAL_RCC_GPIOD_CLK_ENABLE();
 715              		.loc 1 228 5 view .LVU189
 716 007a 164B     		ldr	r3, .L47+8
 717 007c 1A6C     		ldr	r2, [r3, #64]
 718 007e 42F00402 		orr	r2, r2, #4
 719 0082 1A64     		str	r2, [r3, #64]
 228:Core/Src/Drivers/Encoder/encoder.c ****     __HAL_RCC_GPIOD_CLK_ENABLE();
 720              		.loc 1 228 5 view .LVU190
 721 0084 1A6C     		ldr	r2, [r3, #64]
ARM GAS  C:\Users\ACER\AppData\Local\Temp\ccRn6DSV.s 			page 19


 722 0086 02F00402 		and	r2, r2, #4
 723 008a 0392     		str	r2, [sp, #12]
 228:Core/Src/Drivers/Encoder/encoder.c ****     __HAL_RCC_GPIOD_CLK_ENABLE();
 724              		.loc 1 228 5 view .LVU191
 725 008c 039A     		ldr	r2, [sp, #12]
 726              	.LBE5:
 228:Core/Src/Drivers/Encoder/encoder.c ****     __HAL_RCC_GPIOD_CLK_ENABLE();
 727              		.loc 1 228 5 view .LVU192
 229:Core/Src/Drivers/Encoder/encoder.c **** 
 728              		.loc 1 229 5 view .LVU193
 729              	.LBB6:
 229:Core/Src/Drivers/Encoder/encoder.c **** 
 730              		.loc 1 229 5 view .LVU194
 731 008e 0494     		str	r4, [sp, #16]
 229:Core/Src/Drivers/Encoder/encoder.c **** 
 732              		.loc 1 229 5 view .LVU195
 733 0090 1A6B     		ldr	r2, [r3, #48]
 734 0092 42F00802 		orr	r2, r2, #8
 735 0096 1A63     		str	r2, [r3, #48]
 229:Core/Src/Drivers/Encoder/encoder.c **** 
 736              		.loc 1 229 5 view .LVU196
 737 0098 1B6B     		ldr	r3, [r3, #48]
 738 009a 03F00803 		and	r3, r3, #8
 739 009e 0493     		str	r3, [sp, #16]
 229:Core/Src/Drivers/Encoder/encoder.c **** 
 740              		.loc 1 229 5 view .LVU197
 741 00a0 049B     		ldr	r3, [sp, #16]
 742              	.LBE6:
 229:Core/Src/Drivers/Encoder/encoder.c **** 
 743              		.loc 1 229 5 view .LVU198
 235:Core/Src/Drivers/Encoder/encoder.c ****     GPIO_InitStruct.Mode = GPIO_MODE_AF_PP;
 744              		.loc 1 235 5 view .LVU199
 235:Core/Src/Drivers/Encoder/encoder.c ****     GPIO_InitStruct.Mode = GPIO_MODE_AF_PP;
 745              		.loc 1 235 25 is_stmt 0 view .LVU200
 746 00a2 4FF44053 		mov	r3, #12288
 747 00a6 0593     		str	r3, [sp, #20]
 236:Core/Src/Drivers/Encoder/encoder.c ****     GPIO_InitStruct.Pull = GPIO_PULLUP;
 748              		.loc 1 236 5 is_stmt 1 view .LVU201
 236:Core/Src/Drivers/Encoder/encoder.c ****     GPIO_InitStruct.Pull = GPIO_PULLUP;
 749              		.loc 1 236 26 is_stmt 0 view .LVU202
 750 00a8 0223     		movs	r3, #2
 751 00aa 0693     		str	r3, [sp, #24]
 237:Core/Src/Drivers/Encoder/encoder.c ****     GPIO_InitStruct.Speed = GPIO_SPEED_FREQ_LOW;
 752              		.loc 1 237 5 is_stmt 1 view .LVU203
 237:Core/Src/Drivers/Encoder/encoder.c ****     GPIO_InitStruct.Speed = GPIO_SPEED_FREQ_LOW;
 753              		.loc 1 237 26 is_stmt 0 view .LVU204
 754 00ac 0122     		movs	r2, #1
 755 00ae 0792     		str	r2, [sp, #28]
 238:Core/Src/Drivers/Encoder/encoder.c ****     GPIO_InitStruct.Alternate = GPIO_AF2_TIM4;
 756              		.loc 1 238 5 is_stmt 1 view .LVU205
 239:Core/Src/Drivers/Encoder/encoder.c ****     HAL_GPIO_Init(GPIOD, &GPIO_InitStruct);
 757              		.loc 1 239 5 view .LVU206
 239:Core/Src/Drivers/Encoder/encoder.c ****     HAL_GPIO_Init(GPIOD, &GPIO_InitStruct);
 758              		.loc 1 239 31 is_stmt 0 view .LVU207
 759 00b0 0993     		str	r3, [sp, #36]
 240:Core/Src/Drivers/Encoder/encoder.c **** 
 760              		.loc 1 240 5 is_stmt 1 view .LVU208
ARM GAS  C:\Users\ACER\AppData\Local\Temp\ccRn6DSV.s 			page 20


 761 00b2 05A9     		add	r1, sp, #20
 762 00b4 0948     		ldr	r0, .L47+16
 763              	.LVL28:
 240:Core/Src/Drivers/Encoder/encoder.c **** 
 764              		.loc 1 240 5 is_stmt 0 view .LVU209
 765 00b6 FFF7FEFF 		bl	HAL_GPIO_Init
 766              	.LVL29:
 243:Core/Src/Drivers/Encoder/encoder.c ****     HAL_NVIC_EnableIRQ(TIM4_IRQn);
 767              		.loc 1 243 5 is_stmt 1 view .LVU210
 768 00ba 2246     		mov	r2, r4
 769 00bc 0721     		movs	r1, #7
 770 00be 1E20     		movs	r0, #30
 771 00c0 FFF7FEFF 		bl	HAL_NVIC_SetPriority
 772              	.LVL30:
 244:Core/Src/Drivers/Encoder/encoder.c ****   }
 773              		.loc 1 244 5 view .LVU211
 774 00c4 1E20     		movs	r0, #30
 775 00c6 FFF7FEFF 		bl	HAL_NVIC_EnableIRQ
 776              	.LVL31:
 777              		.loc 1 247 1 is_stmt 0 view .LVU212
 778 00ca A8E7     		b	.L41
 779              	.L48:
 780              		.align	2
 781              	.L47:
 782 00cc 00040040 		.word	1073742848
 783 00d0 00080040 		.word	1073743872
 784 00d4 00380240 		.word	1073887232
 785 00d8 00000240 		.word	1073872896
 786 00dc 000C0240 		.word	1073875968
 787              		.cfi_endproc
 788              	.LFE177:
 790              		.section	.text.HAL_TIM_Base_MspInit,"ax",%progbits
 791              		.align	1
 792              		.global	HAL_TIM_Base_MspInit
 793              		.syntax unified
 794              		.thumb
 795              		.thumb_func
 797              	HAL_TIM_Base_MspInit:
 798              	.LVL32:
 799              	.LFB178:
 248:Core/Src/Drivers/Encoder/encoder.c **** 
 249:Core/Src/Drivers/Encoder/encoder.c **** /**
 250:Core/Src/Drivers/Encoder/encoder.c **** * @brief TIM_Base MSP Initialization
 251:Core/Src/Drivers/Encoder/encoder.c **** * This function configures the hardware resources used in this example
 252:Core/Src/Drivers/Encoder/encoder.c **** * @param htim_base: TIM_Base handle pointer
 253:Core/Src/Drivers/Encoder/encoder.c **** * @retval None
 254:Core/Src/Drivers/Encoder/encoder.c **** */
 255:Core/Src/Drivers/Encoder/encoder.c **** void HAL_TIM_Base_MspInit(TIM_HandleTypeDef* htim_base)
 256:Core/Src/Drivers/Encoder/encoder.c **** {
 800              		.loc 1 256 1 is_stmt 1 view -0
 801              		.cfi_startproc
 802              		@ args = 0, pretend = 0, frame = 8
 803              		@ frame_needed = 0, uses_anonymous_args = 0
 257:Core/Src/Drivers/Encoder/encoder.c ****   if(htim_base->Instance==TIM7)
 804              		.loc 1 257 3 view .LVU214
 805              		.loc 1 257 15 is_stmt 0 view .LVU215
 806 0000 0268     		ldr	r2, [r0]
ARM GAS  C:\Users\ACER\AppData\Local\Temp\ccRn6DSV.s 			page 21


 807              		.loc 1 257 5 view .LVU216
 808 0002 0E4B     		ldr	r3, .L56
 809 0004 9A42     		cmp	r2, r3
 810 0006 00D0     		beq	.L55
 811 0008 7047     		bx	lr
 812              	.L55:
 256:Core/Src/Drivers/Encoder/encoder.c ****   if(htim_base->Instance==TIM7)
 813              		.loc 1 256 1 view .LVU217
 814 000a 00B5     		push	{lr}
 815              	.LCFI21:
 816              		.cfi_def_cfa_offset 4
 817              		.cfi_offset 14, -4
 818 000c 83B0     		sub	sp, sp, #12
 819              	.LCFI22:
 820              		.cfi_def_cfa_offset 16
 258:Core/Src/Drivers/Encoder/encoder.c ****   {
 259:Core/Src/Drivers/Encoder/encoder.c ****     /* Peripheral clock enable */
 260:Core/Src/Drivers/Encoder/encoder.c ****     __HAL_RCC_TIM7_CLK_ENABLE();
 821              		.loc 1 260 5 is_stmt 1 view .LVU218
 822              	.LBB7:
 823              		.loc 1 260 5 view .LVU219
 824 000e 0022     		movs	r2, #0
 825 0010 0192     		str	r2, [sp, #4]
 826              		.loc 1 260 5 view .LVU220
 827 0012 03F50933 		add	r3, r3, #140288
 828 0016 196C     		ldr	r1, [r3, #64]
 829 0018 41F02001 		orr	r1, r1, #32
 830 001c 1964     		str	r1, [r3, #64]
 831              		.loc 1 260 5 view .LVU221
 832 001e 1B6C     		ldr	r3, [r3, #64]
 833 0020 03F02003 		and	r3, r3, #32
 834 0024 0193     		str	r3, [sp, #4]
 835              		.loc 1 260 5 view .LVU222
 836 0026 019B     		ldr	r3, [sp, #4]
 837              	.LBE7:
 838              		.loc 1 260 5 view .LVU223
 261:Core/Src/Drivers/Encoder/encoder.c **** 
 262:Core/Src/Drivers/Encoder/encoder.c ****     /* TIM7 interrupt Init */
 263:Core/Src/Drivers/Encoder/encoder.c ****     HAL_NVIC_SetPriority(TIM7_IRQn, 8, 0);
 839              		.loc 1 263 5 view .LVU224
 840 0028 0821     		movs	r1, #8
 841 002a 3720     		movs	r0, #55
 842              	.LVL33:
 843              		.loc 1 263 5 is_stmt 0 view .LVU225
 844 002c FFF7FEFF 		bl	HAL_NVIC_SetPriority
 845              	.LVL34:
 264:Core/Src/Drivers/Encoder/encoder.c ****     HAL_NVIC_EnableIRQ(TIM7_IRQn);
 846              		.loc 1 264 5 is_stmt 1 view .LVU226
 847 0030 3720     		movs	r0, #55
 848 0032 FFF7FEFF 		bl	HAL_NVIC_EnableIRQ
 849              	.LVL35:
 265:Core/Src/Drivers/Encoder/encoder.c ****   }
 266:Core/Src/Drivers/Encoder/encoder.c **** }...
 850              		.loc 1 266 1 is_stmt 0 view .LVU227
 851 0036 03B0     		add	sp, sp, #12
 852              	.LCFI23:
 853              		.cfi_def_cfa_offset 4
ARM GAS  C:\Users\ACER\AppData\Local\Temp\ccRn6DSV.s 			page 22


 854              		@ sp needed
 855 0038 5DF804FB 		ldr	pc, [sp], #4
 856              	.L57:
 857              		.align	2
 858              	.L56:
 859 003c 00140040 		.word	1073746944
 860              		.cfi_endproc
 861              	.LFE178:
 863              		.section	.rodata.time_evt.0,"a"
 864              		.align	2
 867              	time_evt.0:
 868 0000 0300     		.short	3
 869              		.section	.bss.pendlm_counter,"aw",%nobits
 870              		.align	1
 873              	pendlm_counter:
 874 0000 0000     		.space	2
 875              		.section	.bss.motor_counter,"aw",%nobits
 876              		.align	1
 879              	motor_counter:
 880 0000 0000     		.space	2
 881              		.global	htim7
 882              		.section	.bss.htim7,"aw",%nobits
 883              		.align	2
 886              	htim7:
 887 0000 00000000 		.space	72
 887      00000000 
 887      00000000 
 887      00000000 
 887      00000000 
 888              		.global	htim4
 889              		.section	.bss.htim4,"aw",%nobits
 890              		.align	2
 893              	htim4:
 894 0000 00000000 		.space	72
 894      00000000 
 894      00000000 
 894      00000000 
 894      00000000 
 895              		.global	htim3
 896              		.section	.bss.htim3,"aw",%nobits
 897              		.align	2
 900              	htim3:
 901 0000 00000000 		.space	72
 901      00000000 
 901      00000000 
 901      00000000 
 901      00000000 
 902              		.text
 903              	.Letext0:
 904              		.file 2 "Drivers/CMSIS/Device/ST/STM32F4xx/Include/stm32f407xx.h"
 905              		.file 3 "D:/Software/Arm Toolchain/arm-gnu-toolchain-13.2.rel1-mingw-w64-i686-arm-none-eabi/arm-gn
 906              		.file 4 "D:/Software/Arm Toolchain/arm-gnu-toolchain-13.2.rel1-mingw-w64-i686-arm-none-eabi/arm-gn
 907              		.file 5 "Drivers/STM32F4xx_HAL_Driver/Inc/stm32f4xx_hal_def.h"
 908              		.file 6 "Drivers/STM32F4xx_HAL_Driver/Inc/stm32f4xx_hal_gpio.h"
 909              		.file 7 "Drivers/STM32F4xx_HAL_Driver/Inc/stm32f4xx_hal_dma.h"
 910              		.file 8 "Drivers/STM32F4xx_HAL_Driver/Inc/stm32f4xx_hal_tim.h"
 911              		.file 9 "ThirdParty/FreeRTOS/portable/GCC/ARM_CM4F/portmacro.h"
ARM GAS  C:\Users\ACER\AppData\Local\Temp\ccRn6DSV.s 			page 23


 912              		.file 10 "ThirdParty/FreeRTOS/include/FreeRTOS.h"
 913              		.file 11 "ThirdParty/FreeRTOS/include/task.h"
 914              		.file 12 "ThirdParty/FreeRTOS/include/queue.h"
 915              		.file 13 "Core/Src/Middleware/Active_Object/active_object.h"
 916              		.file 14 "Core/Src/Application/State_Estimator/state_estimator.h"
 917              		.file 15 "Drivers/STM32F4xx_HAL_Driver/Inc/stm32f4xx_hal_cortex.h"
 918              		.file 16 "Drivers/STM32F4xx_HAL_Driver/Inc/stm32f4xx_hal_tim_ex.h"
 919              		.file 17 "<built-in>"
ARM GAS  C:\Users\ACER\AppData\Local\Temp\ccRn6DSV.s 			page 24

