ARM GAS  C:\Users\ACER\AppData\Local\Temp\ccvpIBtD.s 			page 1


   1              		.cpu cortex-m4
   2              		.arch armv7e-m
   3              		.fpu fpv4-sp-d16
   4              		.eabi_attribute 27, 1
   5              		.eabi_attribute 28, 1
   6              		.eabi_attribute 20, 1
   7              		.eabi_attribute 21, 1
   8              		.eabi_attribute 23, 3
   9              		.eabi_attribute 24, 1
  10              		.eabi_attribute 25, 1
  11              		.eabi_attribute 26, 1
  12              		.eabi_attribute 30, 1
  13              		.eabi_attribute 34, 1
  14              		.eabi_attribute 18, 4
  15              		.file	"main.c"
  16              		.text
  17              	.Ltext0:
  18              		.cfi_sections	.debug_frame
  19              		.file 1 "Core/Src/main.c"
  20              		.section	.text.main,"ax",%progbits
  21              		.align	1
  22              		.global	main
  23              		.syntax unified
  24              		.thumb
  25              		.thumb_func
  27              	main:
  28              	.LFB171:
   1:Core/Src/main.c **** #include "main.h"
   2:Core/Src/main.c **** #include "FreeRTOS.h"
   3:Core/Src/main.c **** #include "task.h"
   4:Core/Src/main.c **** 
   5:Core/Src/main.c **** static struct StateEstimator state_estimator;
   6:Core/Src/main.c **** static struct Ao* state_estimator_ao = &state_estimator.super; 
   7:Core/Src/main.c **** 
   8:Core/Src/main.c **** int main(void)
   9:Core/Src/main.c **** {
  29              		.loc 1 9 1 view -0
  30              		.cfi_startproc
  31              		@ Volatile: function does not return.
  32              		@ args = 0, pretend = 0, frame = 0
  33              		@ frame_needed = 0, uses_anonymous_args = 0
  34 0000 00B5     		push	{lr}
  35              	.LCFI0:
  36              		.cfi_def_cfa_offset 4
  37              		.cfi_offset 14, -4
  38 0002 83B0     		sub	sp, sp, #12
  39              	.LCFI1:
  40              		.cfi_def_cfa_offset 16
  10:Core/Src/main.c ****   // System initialization
  11:Core/Src/main.c **** 
  12:Core/Src/main.c ****   HAL_Init();
  41              		.loc 1 12 3 view .LVU1
  42 0004 FFF7FEFF 		bl	HAL_Init
  43              	.LVL0:
  13:Core/Src/main.c ****   SystemClock_Config();
  44              		.loc 1 13 3 view .LVU2
  45 0008 FFF7FEFF 		bl	SystemClock_Config
ARM GAS  C:\Users\ACER\AppData\Local\Temp\ccvpIBtD.s 			page 2


  46              	.LVL1:
  14:Core/Src/main.c ****   
  15:Core/Src/main.c ****   // Periferal initialization
  16:Core/Src/main.c ****   MX_GPIO_Init();
  47              		.loc 1 16 3 view .LVU3
  48 000c FFF7FEFF 		bl	MX_GPIO_Init
  49              	.LVL2:
  17:Core/Src/main.c ****   Driver_MotorCommunicator_Init();
  50              		.loc 1 17 3 view .LVU4
  51 0010 FFF7FEFF 		bl	Driver_MotorCommunicator_Init
  52              	.LVL3:
  18:Core/Src/main.c ****   Driver_StateEstimator_Init();
  53              		.loc 1 18 3 view .LVU5
  54 0014 FFF7FEFF 		bl	Driver_StateEstimator_Init
  55              	.LVL4:
  19:Core/Src/main.c ****   App_ComputerCommunicator_Init();
  56              		.loc 1 19 3 view .LVU6
  57 0018 FFF7FEFF 		bl	App_ComputerCommunicator_Init
  58              	.LVL5:
  20:Core/Src/main.c **** 
  21:Core/Src/main.c ****   // Task initialization----------------------------------------------------------------
  22:Core/Src/main.c ****   // State Estimator Task
  23:Core/Src/main.c ****   StateEstimator.new(&state_estimator);
  59              		.loc 1 23 3 view .LVU7
  60              		.loc 1 23 17 is_stmt 0 view .LVU8
  61 001c 084B     		ldr	r3, .L4
  62 001e 1B68     		ldr	r3, [r3]
  63              		.loc 1 23 3 view .LVU9
  64 0020 084C     		ldr	r4, .L4+4
  65 0022 2046     		mov	r0, r4
  66 0024 9847     		blx	r3
  67              	.LVL6:
  24:Core/Src/main.c ****   state_estimator.super.start(state_estimator_ao,
  68              		.loc 1 24 3 is_stmt 1 view .LVU10
  69              		.loc 1 24 24 is_stmt 0 view .LVU11
  70 0026 D4F8BC50 		ldr	r5, [r4, #188]
  71              		.loc 1 24 3 view .LVU12
  72 002a 0023     		movs	r3, #0
  73 002c 0093     		str	r3, [sp]
  74 002e 8223     		movs	r3, #130
  75 0030 6422     		movs	r2, #100
  76 0032 0121     		movs	r1, #1
  77 0034 2046     		mov	r0, r4
  78 0036 A847     		blx	r5
  79              	.LVL7:
  25:Core/Src/main.c ****                               1,
  26:Core/Src/main.c ****                               100,
  27:Core/Src/main.c ****                               configMINIMAL_STACK_SIZE,
  28:Core/Src/main.c ****                               0U);
  29:Core/Src/main.c ****     
  30:Core/Src/main.c **** 
  31:Core/Src/main.c **** 
  32:Core/Src/main.c **** 
  33:Core/Src/main.c ****   vTaskStartScheduler();
  80              		.loc 1 33 3 is_stmt 1 view .LVU13
  81 0038 FFF7FEFF 		bl	vTaskStartScheduler
  82              	.LVL8:
ARM GAS  C:\Users\ACER\AppData\Local\Temp\ccvpIBtD.s 			page 3


  83              	.L2:
  34:Core/Src/main.c ****   while(1){}
  84              		.loc 1 34 3 view .LVU14
  85              		.loc 1 34 12 view .LVU15
  86              		.loc 1 34 8 view .LVU16
  87 003c FEE7     		b	.L2
  88              	.L5:
  89 003e 00BF     		.align	2
  90              	.L4:
  91 0040 00000000 		.word	StateEstimator
  92 0044 00000000 		.word	state_estimator
  93              		.cfi_endproc
  94              	.LFE171:
  96              		.section	.bss.state_estimator,"aw",%nobits
  97              		.align	2
 100              	state_estimator:
 101 0000 00000000 		.space	212
 101      00000000 
 101      00000000 
 101      00000000 
 101      00000000 
 102              		.text
 103              	.Letext0:
 104              		.file 2 "D:/Software/Arm Toolchain/arm-gnu-toolchain-13.2.rel1-mingw-w64-i686-arm-none-eabi/arm-gn
 105              		.file 3 "D:/Software/Arm Toolchain/arm-gnu-toolchain-13.2.rel1-mingw-w64-i686-arm-none-eabi/arm-gn
 106              		.file 4 "Drivers/STM32F4xx_HAL_Driver/Inc/stm32f4xx_hal_def.h"
 107              		.file 5 "ThirdParty/FreeRTOS/portable/GCC/ARM_CM4F/portmacro.h"
 108              		.file 6 "ThirdParty/FreeRTOS/include/FreeRTOS.h"
 109              		.file 7 "ThirdParty/FreeRTOS/include/task.h"
 110              		.file 8 "ThirdParty/FreeRTOS/include/queue.h"
 111              		.file 9 "Core/Src/Middleware/Active_Object/active_object.h"
 112              		.file 10 "Core/Src/Drivers/State_Estimator/state_estimator.h"
 113              		.file 11 "Core/Src/Application/Computer_Communicator/computer_communicator.h"
 114              		.file 12 "Core/Src/Drivers/Motor_Communicator/motor_communicator.h"
 115              		.file 13 "Core/Src/Drivers/System_Config/system_config.h"
 116              		.file 14 "Drivers/STM32F4xx_HAL_Driver/Inc/stm32f4xx_hal.h"
ARM GAS  C:\Users\ACER\AppData\Local\Temp\ccvpIBtD.s 			page 4


DEFINED SYMBOLS
                            *ABS*:00000000 main.c
C:\Users\ACER\AppData\Local\Temp\ccvpIBtD.s:21     .text.main:00000000 $t
C:\Users\ACER\AppData\Local\Temp\ccvpIBtD.s:27     .text.main:00000000 main
C:\Users\ACER\AppData\Local\Temp\ccvpIBtD.s:91     .text.main:00000040 $d
C:\Users\ACER\AppData\Local\Temp\ccvpIBtD.s:100    .bss.state_estimator:00000000 state_estimator
C:\Users\ACER\AppData\Local\Temp\ccvpIBtD.s:97     .bss.state_estimator:00000000 $d

UNDEFINED SYMBOLS
HAL_Init
SystemClock_Config
MX_GPIO_Init
Driver_MotorCommunicator_Init
Driver_StateEstimator_Init
App_ComputerCommunicator_Init
vTaskStartScheduler
StateEstimator
