ARM GAS  C:\Users\ACER\AppData\Local\Temp\ccBXTuQe.s 			page 1


   1              		.cpu cortex-m4
   2              		.arch armv7e-m
   3              		.fpu fpv4-sp-d16
   4              		.eabi_attribute 27, 1
   5              		.eabi_attribute 28, 1
   6              		.eabi_attribute 20, 1
   7              		.eabi_attribute 21, 1
   8              		.eabi_attribute 23, 3
   9              		.eabi_attribute 24, 1
  10              		.eabi_attribute 25, 1
  11              		.eabi_attribute 26, 1
  12              		.eabi_attribute 30, 1
  13              		.eabi_attribute 34, 1
  14              		.eabi_attribute 18, 4
  15              		.file	"state_estimator.c"
  16              		.text
  17              	.Ltext0:
  18              		.cfi_sections	.debug_frame
  19              		.file 1 "Core/Src/Drivers/State_Estimator/state_estimator.c"
  20              		.section	.text.initial,"ax",%progbits
  21              		.align	1
  22              		.global	initial
  23              		.syntax unified
  24              		.thumb
  25              		.thumb_func
  27              	initial:
  28              	.LVL0:
  29              	.LFB168:
   1:Core/Src/Drivers/State_Estimator/state_estimator.c **** #include "state_estimator.h"
   2:Core/Src/Drivers/State_Estimator/state_estimator.c **** 
   3:Core/Src/Drivers/State_Estimator/state_estimator.c **** /*Private Interfacce*/
   4:Core/Src/Drivers/State_Estimator/state_estimator.c **** TIM_HandleTypeDef htim3;
   5:Core/Src/Drivers/State_Estimator/state_estimator.c **** TIM_HandleTypeDef htim4;
   6:Core/Src/Drivers/State_Estimator/state_estimator.c **** TIM_HandleTypeDef htim7;
   7:Core/Src/Drivers/State_Estimator/state_estimator.c **** static int16_t pendlm_counter = 0;
   8:Core/Src/Drivers/State_Estimator/state_estimator.c **** static int16_t motor_counter = 0;
   9:Core/Src/Drivers/State_Estimator/state_estimator.c **** static struct Ao * ao_estimator;
  10:Core/Src/Drivers/State_Estimator/state_estimator.c **** 
  11:Core/Src/Drivers/State_Estimator/state_estimator.c **** static void MX_TIM3_Init(void);
  12:Core/Src/Drivers/State_Estimator/state_estimator.c **** static void MX_TIM4_Init(void);
  13:Core/Src/Drivers/State_Estimator/state_estimator.c **** static void MX_TIM7_Init(void);
  14:Core/Src/Drivers/State_Estimator/state_estimator.c **** 
  15:Core/Src/Drivers/State_Estimator/state_estimator.c **** Status initial(struct StateEstimator *const self, Event const * const event)
  16:Core/Src/Drivers/State_Estimator/state_estimator.c **** {
  30              		.loc 1 16 1 view -0
  31              		.cfi_startproc
  32              		@ args = 0, pretend = 0, frame = 0
  33              		@ frame_needed = 0, uses_anonymous_args = 0
  34              		@ link register save eliminated.
  17:Core/Src/Drivers/State_Estimator/state_estimator.c ****   Status status;
  35              		.loc 1 17 3 view .LVU1
  18:Core/Src/Drivers/State_Estimator/state_estimator.c ****   status = TRAN_STATUS;
  36              		.loc 1 18 3 view .LVU2
  19:Core/Src/Drivers/State_Estimator/state_estimator.c ****   self->super.handler = (StateHandler)self->wait;
  37              		.loc 1 19 3 view .LVU3
  38              		.loc 1 19 43 is_stmt 0 view .LVU4
  39 0000 D0F8D030 		ldr	r3, [r0, #208]
ARM GAS  C:\Users\ACER\AppData\Local\Temp\ccBXTuQe.s 			page 2


  40              		.loc 1 19 23 view .LVU5
  41 0004 0360     		str	r3, [r0]
  20:Core/Src/Drivers/State_Estimator/state_estimator.c ****   return status;
  42              		.loc 1 20 3 is_stmt 1 view .LVU6
  21:Core/Src/Drivers/State_Estimator/state_estimator.c **** }
  43              		.loc 1 21 1 is_stmt 0 view .LVU7
  44 0006 0020     		movs	r0, #0
  45              	.LVL1:
  46              		.loc 1 21 1 view .LVU8
  47 0008 7047     		bx	lr
  48              		.cfi_endproc
  49              	.LFE168:
  51              		.section	.text.wait,"ax",%progbits
  52              		.align	1
  53              		.global	wait
  54              		.syntax unified
  55              		.thumb
  56              		.thumb_func
  58              	wait:
  59              	.LVL2:
  60              	.LFB169:
  22:Core/Src/Drivers/State_Estimator/state_estimator.c **** 
  23:Core/Src/Drivers/State_Estimator/state_estimator.c **** Status wait(struct StateEstimator *const self, Event const * const event)
  24:Core/Src/Drivers/State_Estimator/state_estimator.c **** {
  61              		.loc 1 24 1 is_stmt 1 view -0
  62              		.cfi_startproc
  63              		@ args = 0, pretend = 0, frame = 0
  64              		@ frame_needed = 0, uses_anonymous_args = 0
  65              		.loc 1 24 1 is_stmt 0 view .LVU10
  66 0000 08B5     		push	{r3, lr}
  67              	.LCFI0:
  68              		.cfi_def_cfa_offset 8
  69              		.cfi_offset 3, -8
  70              		.cfi_offset 14, -4
  25:Core/Src/Drivers/State_Estimator/state_estimator.c ****   Status status;
  71              		.loc 1 25 3 is_stmt 1 view .LVU11
  26:Core/Src/Drivers/State_Estimator/state_estimator.c ****   
  27:Core/Src/Drivers/State_Estimator/state_estimator.c ****   switch (event->signal)
  72              		.loc 1 27 3 view .LVU12
  73              		.loc 1 27 16 is_stmt 0 view .LVU13
  74 0002 0B88     		ldrh	r3, [r1]
  75              		.loc 1 27 3 view .LVU14
  76 0004 012B     		cmp	r3, #1
  77 0006 03D0     		beq	.L3
  78 0008 032B     		cmp	r3, #3
  79 000a 0ED1     		bne	.L5
  80 000c 0120     		movs	r0, #1
  81              	.LVL3:
  82              		.loc 1 27 3 view .LVU15
  83 000e 0BE0     		b	.L4
  84              	.LVL4:
  85              	.L3:
  28:Core/Src/Drivers/State_Estimator/state_estimator.c ****   {
  29:Core/Src/Drivers/State_Estimator/state_estimator.c ****     case ENTRY_SIG:
  30:Core/Src/Drivers/State_Estimator/state_estimator.c ****     {
  31:Core/Src/Drivers/State_Estimator/state_estimator.c ****       HAL_TIM_Base_Start_IT(&htim7);
  86              		.loc 1 31 7 is_stmt 1 view .LVU16
ARM GAS  C:\Users\ACER\AppData\Local\Temp\ccBXTuQe.s 			page 3


  87 0010 0748     		ldr	r0, .L7
  88              	.LVL5:
  89              		.loc 1 31 7 is_stmt 0 view .LVU17
  90 0012 FFF7FEFF 		bl	HAL_TIM_Base_Start_IT
  91              	.LVL6:
  32:Core/Src/Drivers/State_Estimator/state_estimator.c ****       HAL_TIM_Encoder_Start_IT(&htim3, TIM_CHANNEL_ALL);
  92              		.loc 1 32 7 is_stmt 1 view .LVU18
  93 0016 3C21     		movs	r1, #60
  94 0018 0648     		ldr	r0, .L7+4
  95 001a FFF7FEFF 		bl	HAL_TIM_Encoder_Start_IT
  96              	.LVL7:
  33:Core/Src/Drivers/State_Estimator/state_estimator.c ****       HAL_TIM_Encoder_Start_IT(&htim4, TIM_CHANNEL_ALL);
  97              		.loc 1 33 7 view .LVU19
  98 001e 3C21     		movs	r1, #60
  99 0020 0548     		ldr	r0, .L7+8
 100 0022 FFF7FEFF 		bl	HAL_TIM_Encoder_Start_IT
 101              	.LVL8:
  34:Core/Src/Drivers/State_Estimator/state_estimator.c **** 
  35:Core/Src/Drivers/State_Estimator/state_estimator.c ****       status = HANDLED_STATUS;
 102              		.loc 1 35 7 view .LVU20
  36:Core/Src/Drivers/State_Estimator/state_estimator.c ****       break;
 103              		.loc 1 36 7 view .LVU21
  35:Core/Src/Drivers/State_Estimator/state_estimator.c ****       break;
 104              		.loc 1 35 14 is_stmt 0 view .LVU22
 105 0026 0120     		movs	r0, #1
 106              	.LVL9:
 107              	.L4:
  37:Core/Src/Drivers/State_Estimator/state_estimator.c ****     }
  38:Core/Src/Drivers/State_Estimator/state_estimator.c **** 
  39:Core/Src/Drivers/State_Estimator/state_estimator.c ****     case TIMEOUT_2KHz_SIG:
  40:Core/Src/Drivers/State_Estimator/state_estimator.c ****     {
  41:Core/Src/Drivers/State_Estimator/state_estimator.c ****       
  42:Core/Src/Drivers/State_Estimator/state_estimator.c **** 
  43:Core/Src/Drivers/State_Estimator/state_estimator.c ****       status = HANDLED_STATUS;
  44:Core/Src/Drivers/State_Estimator/state_estimator.c ****       break;
  45:Core/Src/Drivers/State_Estimator/state_estimator.c ****     }
  46:Core/Src/Drivers/State_Estimator/state_estimator.c ****     
  47:Core/Src/Drivers/State_Estimator/state_estimator.c ****     default:
  48:Core/Src/Drivers/State_Estimator/state_estimator.c ****     {
  49:Core/Src/Drivers/State_Estimator/state_estimator.c ****       status = IGNORED_STATUS;
  50:Core/Src/Drivers/State_Estimator/state_estimator.c ****       break;
  51:Core/Src/Drivers/State_Estimator/state_estimator.c ****     }
  52:Core/Src/Drivers/State_Estimator/state_estimator.c ****       
  53:Core/Src/Drivers/State_Estimator/state_estimator.c ****   }
  54:Core/Src/Drivers/State_Estimator/state_estimator.c **** 
  55:Core/Src/Drivers/State_Estimator/state_estimator.c ****   return status;
 108              		.loc 1 55 3 is_stmt 1 view .LVU23
  56:Core/Src/Drivers/State_Estimator/state_estimator.c **** }
 109              		.loc 1 56 1 is_stmt 0 view .LVU24
 110 0028 08BD     		pop	{r3, pc}
 111              	.LVL10:
 112              	.L5:
  49:Core/Src/Drivers/State_Estimator/state_estimator.c ****       break;
 113              		.loc 1 49 14 view .LVU25
 114 002a 0220     		movs	r0, #2
 115              	.LVL11:
  49:Core/Src/Drivers/State_Estimator/state_estimator.c ****       break;
ARM GAS  C:\Users\ACER\AppData\Local\Temp\ccBXTuQe.s 			page 4


 116              		.loc 1 49 14 view .LVU26
 117 002c FCE7     		b	.L4
 118              	.L8:
 119 002e 00BF     		.align	2
 120              	.L7:
 121 0030 00000000 		.word	htim7
 122 0034 00000000 		.word	htim3
 123 0038 00000000 		.word	htim4
 124              		.cfi_endproc
 125              	.LFE169:
 127              		.section	.text.new,"ax",%progbits
 128              		.align	1
 129              		.syntax unified
 130              		.thumb
 131              		.thumb_func
 133              	new:
 134              	.LVL12:
 135              	.LFB170:
  57:Core/Src/Drivers/State_Estimator/state_estimator.c **** 
  58:Core/Src/Drivers/State_Estimator/state_estimator.c **** static void new(struct StateEstimator * const self)
  59:Core/Src/Drivers/State_Estimator/state_estimator.c **** {
 136              		.loc 1 59 1 is_stmt 1 view -0
 137              		.cfi_startproc
 138              		@ args = 0, pretend = 0, frame = 0
 139              		@ frame_needed = 0, uses_anonymous_args = 0
 140              		.loc 1 59 1 is_stmt 0 view .LVU28
 141 0000 10B5     		push	{r4, lr}
 142              	.LCFI1:
 143              		.cfi_def_cfa_offset 8
 144              		.cfi_offset 4, -8
 145              		.cfi_offset 14, -4
 146 0002 0446     		mov	r4, r0
  60:Core/Src/Drivers/State_Estimator/state_estimator.c ****   self->initial=&initial; self->wait=&wait;
 147              		.loc 1 60 3 is_stmt 1 view .LVU29
 148              		.loc 1 60 16 is_stmt 0 view .LVU30
 149 0004 0549     		ldr	r1, .L11
 150 0006 C0F8CC10 		str	r1, [r0, #204]
 151              		.loc 1 60 27 is_stmt 1 view .LVU31
 152              		.loc 1 60 37 is_stmt 0 view .LVU32
 153 000a 054B     		ldr	r3, .L11+4
 154 000c C0F8D030 		str	r3, [r0, #208]
  61:Core/Src/Drivers/State_Estimator/state_estimator.c ****   Ao_new(&self->super, (StateHandler)&initial);
 155              		.loc 1 61 3 is_stmt 1 view .LVU33
 156 0010 FFF7FEFF 		bl	Ao_new
 157              	.LVL13:
  62:Core/Src/Drivers/State_Estimator/state_estimator.c ****   ao_estimator = &self->super;
 158              		.loc 1 62 3 view .LVU34
 159              		.loc 1 62 16 is_stmt 0 view .LVU35
 160 0014 034B     		ldr	r3, .L11+8
 161 0016 1C60     		str	r4, [r3]
  63:Core/Src/Drivers/State_Estimator/state_estimator.c **** }
 162              		.loc 1 63 1 view .LVU36
 163 0018 10BD     		pop	{r4, pc}
 164              	.LVL14:
 165              	.L12:
 166              		.loc 1 63 1 view .LVU37
 167 001a 00BF     		.align	2
ARM GAS  C:\Users\ACER\AppData\Local\Temp\ccBXTuQe.s 			page 5


 168              	.L11:
 169 001c 00000000 		.word	initial
 170 0020 00000000 		.word	wait
 171 0024 00000000 		.word	ao_estimator
 172              		.cfi_endproc
 173              	.LFE170:
 175              		.section	.text.MX_TIM3_Init,"ax",%progbits
 176              		.align	1
 177              		.syntax unified
 178              		.thumb
 179              		.thumb_func
 181              	MX_TIM3_Init:
 182              	.LFB177:
  64:Core/Src/Drivers/State_Estimator/state_estimator.c **** const struct StateEstimatorClass StateEstimator={.new=&new};
  65:Core/Src/Drivers/State_Estimator/state_estimator.c **** 
  66:Core/Src/Drivers/State_Estimator/state_estimator.c **** /**
  67:Core/Src/Drivers/State_Estimator/state_estimator.c ****   * @brief  Period elapsed callback in non-blocking mode
  68:Core/Src/Drivers/State_Estimator/state_estimator.c ****   * @param  htim TIM handle
  69:Core/Src/Drivers/State_Estimator/state_estimator.c ****   * @retval None
  70:Core/Src/Drivers/State_Estimator/state_estimator.c ****   */
  71:Core/Src/Drivers/State_Estimator/state_estimator.c **** void HAL_TIM_PeriodElapsedCallback(TIM_HandleTypeDef *htim)
  72:Core/Src/Drivers/State_Estimator/state_estimator.c **** {
  73:Core/Src/Drivers/State_Estimator/state_estimator.c ****   BaseType_t xHigherPriorityTaskWoken = pdFALSE;
  74:Core/Src/Drivers/State_Estimator/state_estimator.c ****   if(htim->Instance == TIM7)
  75:Core/Src/Drivers/State_Estimator/state_estimator.c ****   {
  76:Core/Src/Drivers/State_Estimator/state_estimator.c ****     static const Event time_evt = {TIMEOUT_2KHz_SIG};
  77:Core/Src/Drivers/State_Estimator/state_estimator.c ****     ao_estimator->postFromISR(ao_estimator, &time_evt, &xHigherPriorityTaskWoken);
  78:Core/Src/Drivers/State_Estimator/state_estimator.c ****   }
  79:Core/Src/Drivers/State_Estimator/state_estimator.c **** 
  80:Core/Src/Drivers/State_Estimator/state_estimator.c ****   portEND_SWITCHING_ISR(xHigherPriorityTaskWoken);
  81:Core/Src/Drivers/State_Estimator/state_estimator.c **** }
  82:Core/Src/Drivers/State_Estimator/state_estimator.c **** 
  83:Core/Src/Drivers/State_Estimator/state_estimator.c **** /**
  84:Core/Src/Drivers/State_Estimator/state_estimator.c ****   * @brief  Input Capture callback in non-blocking mode
  85:Core/Src/Drivers/State_Estimator/state_estimator.c ****   * @param  htim TIM IC handle
  86:Core/Src/Drivers/State_Estimator/state_estimator.c ****   * @retval None
  87:Core/Src/Drivers/State_Estimator/state_estimator.c ****   */
  88:Core/Src/Drivers/State_Estimator/state_estimator.c **** void HAL_TIM_IC_CaptureCallback(TIM_HandleTypeDef *htim)
  89:Core/Src/Drivers/State_Estimator/state_estimator.c **** {
  90:Core/Src/Drivers/State_Estimator/state_estimator.c ****   if(htim->Instance == TIM4)
  91:Core/Src/Drivers/State_Estimator/state_estimator.c ****   {
  92:Core/Src/Drivers/State_Estimator/state_estimator.c ****     // Read motor encoder counter value 
  93:Core/Src/Drivers/State_Estimator/state_estimator.c ****     motor_counter = (int16_t)((uint32_t)__HAL_TIM_GET_COUNTER(htim));
  94:Core/Src/Drivers/State_Estimator/state_estimator.c ****   }
  95:Core/Src/Drivers/State_Estimator/state_estimator.c ****   else if(htim->Instance == TIM3)
  96:Core/Src/Drivers/State_Estimator/state_estimator.c ****   {
  97:Core/Src/Drivers/State_Estimator/state_estimator.c ****     // Read pendullum encoder counter value 
  98:Core/Src/Drivers/State_Estimator/state_estimator.c ****     pendlm_counter = (int16_t)((uint32_t)__HAL_TIM_GET_COUNTER(htim));
  99:Core/Src/Drivers/State_Estimator/state_estimator.c ****   }
 100:Core/Src/Drivers/State_Estimator/state_estimator.c **** }
 101:Core/Src/Drivers/State_Estimator/state_estimator.c **** 
 102:Core/Src/Drivers/State_Estimator/state_estimator.c **** /**
 103:Core/Src/Drivers/State_Estimator/state_estimator.c ****   * @brief This function handles TIM3 global interrupt.
 104:Core/Src/Drivers/State_Estimator/state_estimator.c ****   */
 105:Core/Src/Drivers/State_Estimator/state_estimator.c **** void TIM3_IRQHandler(void)
 106:Core/Src/Drivers/State_Estimator/state_estimator.c **** {
 107:Core/Src/Drivers/State_Estimator/state_estimator.c ****   HAL_TIM_IRQHandler(&htim3);
ARM GAS  C:\Users\ACER\AppData\Local\Temp\ccBXTuQe.s 			page 6


 108:Core/Src/Drivers/State_Estimator/state_estimator.c **** }
 109:Core/Src/Drivers/State_Estimator/state_estimator.c **** 
 110:Core/Src/Drivers/State_Estimator/state_estimator.c **** /**
 111:Core/Src/Drivers/State_Estimator/state_estimator.c ****   * @brief This function handles TIM4 global interrupt.
 112:Core/Src/Drivers/State_Estimator/state_estimator.c ****   */
 113:Core/Src/Drivers/State_Estimator/state_estimator.c **** void TIM4_IRQHandler(void)
 114:Core/Src/Drivers/State_Estimator/state_estimator.c **** {
 115:Core/Src/Drivers/State_Estimator/state_estimator.c ****   HAL_TIM_IRQHandler(&htim4);
 116:Core/Src/Drivers/State_Estimator/state_estimator.c **** }
 117:Core/Src/Drivers/State_Estimator/state_estimator.c **** 
 118:Core/Src/Drivers/State_Estimator/state_estimator.c **** /**
 119:Core/Src/Drivers/State_Estimator/state_estimator.c ****   * @brief This function handles TIM7 global interrupt.
 120:Core/Src/Drivers/State_Estimator/state_estimator.c ****   */
 121:Core/Src/Drivers/State_Estimator/state_estimator.c **** void TIM7_IRQHandler(void)
 122:Core/Src/Drivers/State_Estimator/state_estimator.c **** {
 123:Core/Src/Drivers/State_Estimator/state_estimator.c ****   HAL_TIM_IRQHandler(&htim7);
 124:Core/Src/Drivers/State_Estimator/state_estimator.c **** }
 125:Core/Src/Drivers/State_Estimator/state_estimator.c **** 
 126:Core/Src/Drivers/State_Estimator/state_estimator.c **** /**
 127:Core/Src/Drivers/State_Estimator/state_estimator.c ****   * @brief This function initialize USART1.
 128:Core/Src/Drivers/State_Estimator/state_estimator.c ****   */
 129:Core/Src/Drivers/State_Estimator/state_estimator.c **** void Driver_StateEstimator_Init()
 130:Core/Src/Drivers/State_Estimator/state_estimator.c **** {
 131:Core/Src/Drivers/State_Estimator/state_estimator.c ****   MX_TIM3_Init(); // Motor encoder
 132:Core/Src/Drivers/State_Estimator/state_estimator.c ****   MX_TIM4_Init(); // Pendullum encoder
 133:Core/Src/Drivers/State_Estimator/state_estimator.c ****   MX_TIM7_Init(); // Basic timer for generating periodic task running at 2kHz
 134:Core/Src/Drivers/State_Estimator/state_estimator.c **** 
 135:Core/Src/Drivers/State_Estimator/state_estimator.c ****   // HAL_TIM_Base_Start_IT(&htim7);
 136:Core/Src/Drivers/State_Estimator/state_estimator.c ****   // HAL_TIM_Encoder_Start_IT(&htim3, TIM_CHANNEL_ALL);
 137:Core/Src/Drivers/State_Estimator/state_estimator.c ****   // HAL_TIM_Encoder_Start_IT(&htim4, TIM_CHANNEL_ALL);
 138:Core/Src/Drivers/State_Estimator/state_estimator.c **** }
 139:Core/Src/Drivers/State_Estimator/state_estimator.c **** 
 140:Core/Src/Drivers/State_Estimator/state_estimator.c **** /**
 141:Core/Src/Drivers/State_Estimator/state_estimator.c ****   * @brief TIM3 Initialization Function
 142:Core/Src/Drivers/State_Estimator/state_estimator.c ****   * @param None
 143:Core/Src/Drivers/State_Estimator/state_estimator.c ****   * @retval None
 144:Core/Src/Drivers/State_Estimator/state_estimator.c ****   */
 145:Core/Src/Drivers/State_Estimator/state_estimator.c **** static void MX_TIM3_Init(void)
 146:Core/Src/Drivers/State_Estimator/state_estimator.c **** {
 183              		.loc 1 146 1 is_stmt 1 view -0
 184              		.cfi_startproc
 185              		@ args = 0, pretend = 0, frame = 48
 186              		@ frame_needed = 0, uses_anonymous_args = 0
 187 0000 30B5     		push	{r4, r5, lr}
 188              	.LCFI2:
 189              		.cfi_def_cfa_offset 12
 190              		.cfi_offset 4, -12
 191              		.cfi_offset 5, -8
 192              		.cfi_offset 14, -4
 193 0002 8DB0     		sub	sp, sp, #52
 194              	.LCFI3:
 195              		.cfi_def_cfa_offset 64
 147:Core/Src/Drivers/State_Estimator/state_estimator.c ****   TIM_Encoder_InitTypeDef sConfig = {0};
 196              		.loc 1 147 3 view .LVU39
 197              		.loc 1 147 27 is_stmt 0 view .LVU40
 198 0004 2422     		movs	r2, #36
 199 0006 0021     		movs	r1, #0
ARM GAS  C:\Users\ACER\AppData\Local\Temp\ccBXTuQe.s 			page 7


 200 0008 03A8     		add	r0, sp, #12
 201 000a FFF7FEFF 		bl	memset
 202              	.LVL15:
 148:Core/Src/Drivers/State_Estimator/state_estimator.c ****   TIM_MasterConfigTypeDef sMasterConfig = {0};
 203              		.loc 1 148 3 is_stmt 1 view .LVU41
 204              		.loc 1 148 27 is_stmt 0 view .LVU42
 205 000e 0025     		movs	r5, #0
 206 0010 0195     		str	r5, [sp, #4]
 207 0012 0295     		str	r5, [sp, #8]
 149:Core/Src/Drivers/State_Estimator/state_estimator.c **** 
 150:Core/Src/Drivers/State_Estimator/state_estimator.c ****   /* USER CODE BEGIN TIM3_Init 1 */
 151:Core/Src/Drivers/State_Estimator/state_estimator.c **** 
 152:Core/Src/Drivers/State_Estimator/state_estimator.c ****   /* USER CODE END TIM3_Init 1 */
 153:Core/Src/Drivers/State_Estimator/state_estimator.c ****   htim3.Instance = TIM3;
 208              		.loc 1 153 3 is_stmt 1 view .LVU43
 209              		.loc 1 153 18 is_stmt 0 view .LVU44
 210 0014 0D4C     		ldr	r4, .L15
 211 0016 0E4B     		ldr	r3, .L15+4
 212 0018 2360     		str	r3, [r4]
 154:Core/Src/Drivers/State_Estimator/state_estimator.c ****   htim3.Init.Prescaler = 0;
 213              		.loc 1 154 3 is_stmt 1 view .LVU45
 214              		.loc 1 154 24 is_stmt 0 view .LVU46
 215 001a 6560     		str	r5, [r4, #4]
 155:Core/Src/Drivers/State_Estimator/state_estimator.c ****   htim3.Init.CounterMode = TIM_COUNTERMODE_UP;
 216              		.loc 1 155 3 is_stmt 1 view .LVU47
 217              		.loc 1 155 26 is_stmt 0 view .LVU48
 218 001c A560     		str	r5, [r4, #8]
 156:Core/Src/Drivers/State_Estimator/state_estimator.c ****   htim3.Init.Period = 65535;
 219              		.loc 1 156 3 is_stmt 1 view .LVU49
 220              		.loc 1 156 21 is_stmt 0 view .LVU50
 221 001e 4FF6FF73 		movw	r3, #65535
 222 0022 E360     		str	r3, [r4, #12]
 157:Core/Src/Drivers/State_Estimator/state_estimator.c ****   htim3.Init.ClockDivision = TIM_CLOCKDIVISION_DIV1;
 223              		.loc 1 157 3 is_stmt 1 view .LVU51
 224              		.loc 1 157 28 is_stmt 0 view .LVU52
 225 0024 2561     		str	r5, [r4, #16]
 158:Core/Src/Drivers/State_Estimator/state_estimator.c ****   htim3.Init.AutoReloadPreload = TIM_AUTORELOAD_PRELOAD_DISABLE;
 226              		.loc 1 158 3 is_stmt 1 view .LVU53
 227              		.loc 1 158 32 is_stmt 0 view .LVU54
 228 0026 A561     		str	r5, [r4, #24]
 159:Core/Src/Drivers/State_Estimator/state_estimator.c ****   sConfig.EncoderMode = TIM_ENCODERMODE_TI12;
 229              		.loc 1 159 3 is_stmt 1 view .LVU55
 230              		.loc 1 159 23 is_stmt 0 view .LVU56
 231 0028 0323     		movs	r3, #3
 232 002a 0393     		str	r3, [sp, #12]
 160:Core/Src/Drivers/State_Estimator/state_estimator.c ****   sConfig.IC1Polarity = TIM_ICPOLARITY_RISING;
 233              		.loc 1 160 3 is_stmt 1 view .LVU57
 161:Core/Src/Drivers/State_Estimator/state_estimator.c ****   sConfig.IC1Selection = TIM_ICSELECTION_DIRECTTI;
 234              		.loc 1 161 3 view .LVU58
 235              		.loc 1 161 24 is_stmt 0 view .LVU59
 236 002c 0123     		movs	r3, #1
 237 002e 0593     		str	r3, [sp, #20]
 162:Core/Src/Drivers/State_Estimator/state_estimator.c ****   sConfig.IC1Prescaler = TIM_ICPSC_DIV1;
 238              		.loc 1 162 3 is_stmt 1 view .LVU60
 163:Core/Src/Drivers/State_Estimator/state_estimator.c ****   sConfig.IC1Filter = 0;
 239              		.loc 1 163 3 view .LVU61
 164:Core/Src/Drivers/State_Estimator/state_estimator.c ****   sConfig.IC2Polarity = TIM_ICPOLARITY_RISING;
ARM GAS  C:\Users\ACER\AppData\Local\Temp\ccBXTuQe.s 			page 8


 240              		.loc 1 164 3 view .LVU62
 165:Core/Src/Drivers/State_Estimator/state_estimator.c ****   sConfig.IC2Selection = TIM_ICSELECTION_DIRECTTI;
 241              		.loc 1 165 3 view .LVU63
 242              		.loc 1 165 24 is_stmt 0 view .LVU64
 243 0030 0993     		str	r3, [sp, #36]
 166:Core/Src/Drivers/State_Estimator/state_estimator.c ****   sConfig.IC2Prescaler = TIM_ICPSC_DIV1;
 244              		.loc 1 166 3 is_stmt 1 view .LVU65
 167:Core/Src/Drivers/State_Estimator/state_estimator.c ****   sConfig.IC2Filter = 0;
 245              		.loc 1 167 3 view .LVU66
 168:Core/Src/Drivers/State_Estimator/state_estimator.c ****   if (HAL_TIM_Encoder_Init(&htim3, &sConfig) != HAL_OK)
 246              		.loc 1 168 3 view .LVU67
 247              		.loc 1 168 7 is_stmt 0 view .LVU68
 248 0032 03A9     		add	r1, sp, #12
 249 0034 2046     		mov	r0, r4
 250 0036 FFF7FEFF 		bl	HAL_TIM_Encoder_Init
 251              	.LVL16:
 169:Core/Src/Drivers/State_Estimator/state_estimator.c ****   {
 170:Core/Src/Drivers/State_Estimator/state_estimator.c ****     // Error_Handler();
 171:Core/Src/Drivers/State_Estimator/state_estimator.c ****   }
 252              		.loc 1 171 3 is_stmt 1 view .LVU69
 172:Core/Src/Drivers/State_Estimator/state_estimator.c ****   sMasterConfig.MasterOutputTrigger = TIM_TRGO_RESET;
 253              		.loc 1 172 3 view .LVU70
 254              		.loc 1 172 37 is_stmt 0 view .LVU71
 255 003a 0195     		str	r5, [sp, #4]
 173:Core/Src/Drivers/State_Estimator/state_estimator.c ****   sMasterConfig.MasterSlaveMode = TIM_MASTERSLAVEMODE_DISABLE;
 256              		.loc 1 173 3 is_stmt 1 view .LVU72
 257              		.loc 1 173 33 is_stmt 0 view .LVU73
 258 003c 0295     		str	r5, [sp, #8]
 174:Core/Src/Drivers/State_Estimator/state_estimator.c ****   if (HAL_TIMEx_MasterConfigSynchronization(&htim3, &sMasterConfig) != HAL_OK)
 259              		.loc 1 174 3 is_stmt 1 view .LVU74
 260              		.loc 1 174 7 is_stmt 0 view .LVU75
 261 003e 01A9     		add	r1, sp, #4
 262 0040 2046     		mov	r0, r4
 263 0042 FFF7FEFF 		bl	HAL_TIMEx_MasterConfigSynchronization
 264              	.LVL17:
 175:Core/Src/Drivers/State_Estimator/state_estimator.c ****   {
 176:Core/Src/Drivers/State_Estimator/state_estimator.c ****     // Error_Handler();
 177:Core/Src/Drivers/State_Estimator/state_estimator.c ****   }
 265              		.loc 1 177 3 is_stmt 1 view .LVU76
 178:Core/Src/Drivers/State_Estimator/state_estimator.c **** }
 266              		.loc 1 178 1 is_stmt 0 view .LVU77
 267 0046 0DB0     		add	sp, sp, #52
 268              	.LCFI4:
 269              		.cfi_def_cfa_offset 12
 270              		@ sp needed
 271 0048 30BD     		pop	{r4, r5, pc}
 272              	.L16:
 273 004a 00BF     		.align	2
 274              	.L15:
 275 004c 00000000 		.word	htim3
 276 0050 00040040 		.word	1073742848
 277              		.cfi_endproc
 278              	.LFE177:
 280              		.section	.text.MX_TIM4_Init,"ax",%progbits
 281              		.align	1
 282              		.syntax unified
 283              		.thumb
ARM GAS  C:\Users\ACER\AppData\Local\Temp\ccBXTuQe.s 			page 9


 284              		.thumb_func
 286              	MX_TIM4_Init:
 287              	.LFB178:
 179:Core/Src/Drivers/State_Estimator/state_estimator.c **** 
 180:Core/Src/Drivers/State_Estimator/state_estimator.c **** /**
 181:Core/Src/Drivers/State_Estimator/state_estimator.c ****   * @brief TIM4 Initialization Function
 182:Core/Src/Drivers/State_Estimator/state_estimator.c ****   * @param None
 183:Core/Src/Drivers/State_Estimator/state_estimator.c ****   * @retval None
 184:Core/Src/Drivers/State_Estimator/state_estimator.c ****   */
 185:Core/Src/Drivers/State_Estimator/state_estimator.c **** static void MX_TIM4_Init(void)
 186:Core/Src/Drivers/State_Estimator/state_estimator.c **** {
 288              		.loc 1 186 1 is_stmt 1 view -0
 289              		.cfi_startproc
 290              		@ args = 0, pretend = 0, frame = 48
 291              		@ frame_needed = 0, uses_anonymous_args = 0
 292 0000 30B5     		push	{r4, r5, lr}
 293              	.LCFI5:
 294              		.cfi_def_cfa_offset 12
 295              		.cfi_offset 4, -12
 296              		.cfi_offset 5, -8
 297              		.cfi_offset 14, -4
 298 0002 8DB0     		sub	sp, sp, #52
 299              	.LCFI6:
 300              		.cfi_def_cfa_offset 64
 187:Core/Src/Drivers/State_Estimator/state_estimator.c ****   TIM_Encoder_InitTypeDef sConfig = {0};
 301              		.loc 1 187 3 view .LVU79
 302              		.loc 1 187 27 is_stmt 0 view .LVU80
 303 0004 2422     		movs	r2, #36
 304 0006 0021     		movs	r1, #0
 305 0008 03A8     		add	r0, sp, #12
 306 000a FFF7FEFF 		bl	memset
 307              	.LVL18:
 188:Core/Src/Drivers/State_Estimator/state_estimator.c ****   TIM_MasterConfigTypeDef sMasterConfig = {0};
 308              		.loc 1 188 3 is_stmt 1 view .LVU81
 309              		.loc 1 188 27 is_stmt 0 view .LVU82
 310 000e 0025     		movs	r5, #0
 311 0010 0195     		str	r5, [sp, #4]
 312 0012 0295     		str	r5, [sp, #8]
 189:Core/Src/Drivers/State_Estimator/state_estimator.c **** 
 190:Core/Src/Drivers/State_Estimator/state_estimator.c ****   htim4.Instance = TIM4;
 313              		.loc 1 190 3 is_stmt 1 view .LVU83
 314              		.loc 1 190 18 is_stmt 0 view .LVU84
 315 0014 0D4C     		ldr	r4, .L19
 316 0016 0E4B     		ldr	r3, .L19+4
 317 0018 2360     		str	r3, [r4]
 191:Core/Src/Drivers/State_Estimator/state_estimator.c ****   htim4.Init.Prescaler = 0;
 318              		.loc 1 191 3 is_stmt 1 view .LVU85
 319              		.loc 1 191 24 is_stmt 0 view .LVU86
 320 001a 6560     		str	r5, [r4, #4]
 192:Core/Src/Drivers/State_Estimator/state_estimator.c ****   htim4.Init.CounterMode = TIM_COUNTERMODE_UP;
 321              		.loc 1 192 3 is_stmt 1 view .LVU87
 322              		.loc 1 192 26 is_stmt 0 view .LVU88
 323 001c A560     		str	r5, [r4, #8]
 193:Core/Src/Drivers/State_Estimator/state_estimator.c ****   htim4.Init.Period = 65535;
 324              		.loc 1 193 3 is_stmt 1 view .LVU89
 325              		.loc 1 193 21 is_stmt 0 view .LVU90
 326 001e 4FF6FF73 		movw	r3, #65535
ARM GAS  C:\Users\ACER\AppData\Local\Temp\ccBXTuQe.s 			page 10


 327 0022 E360     		str	r3, [r4, #12]
 194:Core/Src/Drivers/State_Estimator/state_estimator.c ****   htim4.Init.ClockDivision = TIM_CLOCKDIVISION_DIV1;
 328              		.loc 1 194 3 is_stmt 1 view .LVU91
 329              		.loc 1 194 28 is_stmt 0 view .LVU92
 330 0024 2561     		str	r5, [r4, #16]
 195:Core/Src/Drivers/State_Estimator/state_estimator.c ****   htim4.Init.AutoReloadPreload = TIM_AUTORELOAD_PRELOAD_DISABLE;
 331              		.loc 1 195 3 is_stmt 1 view .LVU93
 332              		.loc 1 195 32 is_stmt 0 view .LVU94
 333 0026 A561     		str	r5, [r4, #24]
 196:Core/Src/Drivers/State_Estimator/state_estimator.c ****   sConfig.EncoderMode = TIM_ENCODERMODE_TI12;
 334              		.loc 1 196 3 is_stmt 1 view .LVU95
 335              		.loc 1 196 23 is_stmt 0 view .LVU96
 336 0028 0323     		movs	r3, #3
 337 002a 0393     		str	r3, [sp, #12]
 197:Core/Src/Drivers/State_Estimator/state_estimator.c ****   sConfig.IC1Polarity = TIM_ICPOLARITY_RISING;
 338              		.loc 1 197 3 is_stmt 1 view .LVU97
 198:Core/Src/Drivers/State_Estimator/state_estimator.c ****   sConfig.IC1Selection = TIM_ICSELECTION_DIRECTTI;
 339              		.loc 1 198 3 view .LVU98
 340              		.loc 1 198 24 is_stmt 0 view .LVU99
 341 002c 0123     		movs	r3, #1
 342 002e 0593     		str	r3, [sp, #20]
 199:Core/Src/Drivers/State_Estimator/state_estimator.c ****   sConfig.IC1Prescaler = TIM_ICPSC_DIV1;
 343              		.loc 1 199 3 is_stmt 1 view .LVU100
 200:Core/Src/Drivers/State_Estimator/state_estimator.c ****   sConfig.IC1Filter = 0;
 344              		.loc 1 200 3 view .LVU101
 201:Core/Src/Drivers/State_Estimator/state_estimator.c ****   sConfig.IC2Polarity = TIM_ICPOLARITY_RISING;
 345              		.loc 1 201 3 view .LVU102
 202:Core/Src/Drivers/State_Estimator/state_estimator.c ****   sConfig.IC2Selection = TIM_ICSELECTION_DIRECTTI;
 346              		.loc 1 202 3 view .LVU103
 347              		.loc 1 202 24 is_stmt 0 view .LVU104
 348 0030 0993     		str	r3, [sp, #36]
 203:Core/Src/Drivers/State_Estimator/state_estimator.c ****   sConfig.IC2Prescaler = TIM_ICPSC_DIV1;
 349              		.loc 1 203 3 is_stmt 1 view .LVU105
 204:Core/Src/Drivers/State_Estimator/state_estimator.c ****   sConfig.IC2Filter = 0;
 350              		.loc 1 204 3 view .LVU106
 205:Core/Src/Drivers/State_Estimator/state_estimator.c ****   if (HAL_TIM_Encoder_Init(&htim4, &sConfig) != HAL_OK)
 351              		.loc 1 205 3 view .LVU107
 352              		.loc 1 205 7 is_stmt 0 view .LVU108
 353 0032 03A9     		add	r1, sp, #12
 354 0034 2046     		mov	r0, r4
 355 0036 FFF7FEFF 		bl	HAL_TIM_Encoder_Init
 356              	.LVL19:
 206:Core/Src/Drivers/State_Estimator/state_estimator.c ****   {
 207:Core/Src/Drivers/State_Estimator/state_estimator.c ****     // Error_Handler();
 208:Core/Src/Drivers/State_Estimator/state_estimator.c ****   }
 357              		.loc 1 208 3 is_stmt 1 view .LVU109
 209:Core/Src/Drivers/State_Estimator/state_estimator.c ****   sMasterConfig.MasterOutputTrigger = TIM_TRGO_RESET;
 358              		.loc 1 209 3 view .LVU110
 359              		.loc 1 209 37 is_stmt 0 view .LVU111
 360 003a 0195     		str	r5, [sp, #4]
 210:Core/Src/Drivers/State_Estimator/state_estimator.c ****   sMasterConfig.MasterSlaveMode = TIM_MASTERSLAVEMODE_DISABLE;
 361              		.loc 1 210 3 is_stmt 1 view .LVU112
 362              		.loc 1 210 33 is_stmt 0 view .LVU113
 363 003c 0295     		str	r5, [sp, #8]
 211:Core/Src/Drivers/State_Estimator/state_estimator.c ****   if (HAL_TIMEx_MasterConfigSynchronization(&htim4, &sMasterConfig) != HAL_OK)
 364              		.loc 1 211 3 is_stmt 1 view .LVU114
 365              		.loc 1 211 7 is_stmt 0 view .LVU115
ARM GAS  C:\Users\ACER\AppData\Local\Temp\ccBXTuQe.s 			page 11


 366 003e 01A9     		add	r1, sp, #4
 367 0040 2046     		mov	r0, r4
 368 0042 FFF7FEFF 		bl	HAL_TIMEx_MasterConfigSynchronization
 369              	.LVL20:
 212:Core/Src/Drivers/State_Estimator/state_estimator.c ****   {
 213:Core/Src/Drivers/State_Estimator/state_estimator.c ****     // Error_Handler();
 214:Core/Src/Drivers/State_Estimator/state_estimator.c ****   }
 370              		.loc 1 214 3 is_stmt 1 view .LVU116
 215:Core/Src/Drivers/State_Estimator/state_estimator.c **** }
 371              		.loc 1 215 1 is_stmt 0 view .LVU117
 372 0046 0DB0     		add	sp, sp, #52
 373              	.LCFI7:
 374              		.cfi_def_cfa_offset 12
 375              		@ sp needed
 376 0048 30BD     		pop	{r4, r5, pc}
 377              	.L20:
 378 004a 00BF     		.align	2
 379              	.L19:
 380 004c 00000000 		.word	htim4
 381 0050 00080040 		.word	1073743872
 382              		.cfi_endproc
 383              	.LFE178:
 385              		.section	.text.MX_TIM7_Init,"ax",%progbits
 386              		.align	1
 387              		.syntax unified
 388              		.thumb
 389              		.thumb_func
 391              	MX_TIM7_Init:
 392              	.LFB179:
 216:Core/Src/Drivers/State_Estimator/state_estimator.c **** 
 217:Core/Src/Drivers/State_Estimator/state_estimator.c **** /**
 218:Core/Src/Drivers/State_Estimator/state_estimator.c ****   * @brief TIM7 Initialization Function
 219:Core/Src/Drivers/State_Estimator/state_estimator.c ****   * @param None
 220:Core/Src/Drivers/State_Estimator/state_estimator.c ****   * @retval None
 221:Core/Src/Drivers/State_Estimator/state_estimator.c ****   */
 222:Core/Src/Drivers/State_Estimator/state_estimator.c **** static void MX_TIM7_Init(void)
 223:Core/Src/Drivers/State_Estimator/state_estimator.c **** {
 393              		.loc 1 223 1 is_stmt 1 view -0
 394              		.cfi_startproc
 395              		@ args = 0, pretend = 0, frame = 8
 396              		@ frame_needed = 0, uses_anonymous_args = 0
 397 0000 30B5     		push	{r4, r5, lr}
 398              	.LCFI8:
 399              		.cfi_def_cfa_offset 12
 400              		.cfi_offset 4, -12
 401              		.cfi_offset 5, -8
 402              		.cfi_offset 14, -4
 403 0002 83B0     		sub	sp, sp, #12
 404              	.LCFI9:
 405              		.cfi_def_cfa_offset 24
 224:Core/Src/Drivers/State_Estimator/state_estimator.c ****   TIM_MasterConfigTypeDef sMasterConfig = {0};
 406              		.loc 1 224 3 view .LVU119
 407              		.loc 1 224 27 is_stmt 0 view .LVU120
 408 0004 0025     		movs	r5, #0
 409 0006 0095     		str	r5, [sp]
 410 0008 0195     		str	r5, [sp, #4]
 225:Core/Src/Drivers/State_Estimator/state_estimator.c **** 
ARM GAS  C:\Users\ACER\AppData\Local\Temp\ccBXTuQe.s 			page 12


 226:Core/Src/Drivers/State_Estimator/state_estimator.c ****   htim7.Instance = TIM7;
 411              		.loc 1 226 3 is_stmt 1 view .LVU121
 412              		.loc 1 226 18 is_stmt 0 view .LVU122
 413 000a 0B4C     		ldr	r4, .L23
 414 000c 0B4B     		ldr	r3, .L23+4
 415 000e 2360     		str	r3, [r4]
 227:Core/Src/Drivers/State_Estimator/state_estimator.c ****   htim7.Init.Prescaler = 84;
 416              		.loc 1 227 3 is_stmt 1 view .LVU123
 417              		.loc 1 227 24 is_stmt 0 view .LVU124
 418 0010 5423     		movs	r3, #84
 419 0012 6360     		str	r3, [r4, #4]
 228:Core/Src/Drivers/State_Estimator/state_estimator.c ****   htim7.Init.CounterMode = TIM_COUNTERMODE_UP;
 420              		.loc 1 228 3 is_stmt 1 view .LVU125
 421              		.loc 1 228 26 is_stmt 0 view .LVU126
 422 0014 A560     		str	r5, [r4, #8]
 229:Core/Src/Drivers/State_Estimator/state_estimator.c ****   htim7.Init.Period = 500;
 423              		.loc 1 229 3 is_stmt 1 view .LVU127
 424              		.loc 1 229 21 is_stmt 0 view .LVU128
 425 0016 4FF4FA73 		mov	r3, #500
 426 001a E360     		str	r3, [r4, #12]
 230:Core/Src/Drivers/State_Estimator/state_estimator.c ****   htim7.Init.AutoReloadPreload = TIM_AUTORELOAD_PRELOAD_ENABLE;
 427              		.loc 1 230 3 is_stmt 1 view .LVU129
 428              		.loc 1 230 32 is_stmt 0 view .LVU130
 429 001c 8023     		movs	r3, #128
 430 001e A361     		str	r3, [r4, #24]
 231:Core/Src/Drivers/State_Estimator/state_estimator.c ****   if (HAL_TIM_Base_Init(&htim7) != HAL_OK)
 431              		.loc 1 231 3 is_stmt 1 view .LVU131
 432              		.loc 1 231 7 is_stmt 0 view .LVU132
 433 0020 2046     		mov	r0, r4
 434 0022 FFF7FEFF 		bl	HAL_TIM_Base_Init
 435              	.LVL21:
 232:Core/Src/Drivers/State_Estimator/state_estimator.c ****   {
 233:Core/Src/Drivers/State_Estimator/state_estimator.c ****     // Error_Handler();
 234:Core/Src/Drivers/State_Estimator/state_estimator.c ****   }
 436              		.loc 1 234 3 is_stmt 1 view .LVU133
 235:Core/Src/Drivers/State_Estimator/state_estimator.c **** 
 236:Core/Src/Drivers/State_Estimator/state_estimator.c ****   sMasterConfig.MasterOutputTrigger = TIM_TRGO_RESET;
 437              		.loc 1 236 3 view .LVU134
 438              		.loc 1 236 37 is_stmt 0 view .LVU135
 439 0026 0095     		str	r5, [sp]
 237:Core/Src/Drivers/State_Estimator/state_estimator.c ****   sMasterConfig.MasterSlaveMode = TIM_MASTERSLAVEMODE_DISABLE;
 440              		.loc 1 237 3 is_stmt 1 view .LVU136
 441              		.loc 1 237 33 is_stmt 0 view .LVU137
 442 0028 0195     		str	r5, [sp, #4]
 238:Core/Src/Drivers/State_Estimator/state_estimator.c ****   if (HAL_TIMEx_MasterConfigSynchronization(&htim7, &sMasterConfig) != HAL_OK)
 443              		.loc 1 238 3 is_stmt 1 view .LVU138
 444              		.loc 1 238 7 is_stmt 0 view .LVU139
 445 002a 6946     		mov	r1, sp
 446 002c 2046     		mov	r0, r4
 447 002e FFF7FEFF 		bl	HAL_TIMEx_MasterConfigSynchronization
 448              	.LVL22:
 239:Core/Src/Drivers/State_Estimator/state_estimator.c ****   {
 240:Core/Src/Drivers/State_Estimator/state_estimator.c ****     // Error_Handler();
 241:Core/Src/Drivers/State_Estimator/state_estimator.c ****   }
 449              		.loc 1 241 3 is_stmt 1 view .LVU140
 242:Core/Src/Drivers/State_Estimator/state_estimator.c **** }
 450              		.loc 1 242 1 is_stmt 0 view .LVU141
ARM GAS  C:\Users\ACER\AppData\Local\Temp\ccBXTuQe.s 			page 13


 451 0032 03B0     		add	sp, sp, #12
 452              	.LCFI10:
 453              		.cfi_def_cfa_offset 12
 454              		@ sp needed
 455 0034 30BD     		pop	{r4, r5, pc}
 456              	.L24:
 457 0036 00BF     		.align	2
 458              	.L23:
 459 0038 00000000 		.word	htim7
 460 003c 00140040 		.word	1073746944
 461              		.cfi_endproc
 462              	.LFE179:
 464              		.section	.text.HAL_TIM_PeriodElapsedCallback,"ax",%progbits
 465              		.align	1
 466              		.global	HAL_TIM_PeriodElapsedCallback
 467              		.syntax unified
 468              		.thumb
 469              		.thumb_func
 471              	HAL_TIM_PeriodElapsedCallback:
 472              	.LVL23:
 473              	.LFB171:
  72:Core/Src/Drivers/State_Estimator/state_estimator.c ****   BaseType_t xHigherPriorityTaskWoken = pdFALSE;
 474              		.loc 1 72 1 is_stmt 1 view -0
 475              		.cfi_startproc
 476              		@ args = 0, pretend = 0, frame = 8
 477              		@ frame_needed = 0, uses_anonymous_args = 0
  72:Core/Src/Drivers/State_Estimator/state_estimator.c ****   BaseType_t xHigherPriorityTaskWoken = pdFALSE;
 478              		.loc 1 72 1 is_stmt 0 view .LVU143
 479 0000 00B5     		push	{lr}
 480              	.LCFI11:
 481              		.cfi_def_cfa_offset 4
 482              		.cfi_offset 14, -4
 483 0002 83B0     		sub	sp, sp, #12
 484              	.LCFI12:
 485              		.cfi_def_cfa_offset 16
  73:Core/Src/Drivers/State_Estimator/state_estimator.c ****   if(htim->Instance == TIM7)
 486              		.loc 1 73 3 is_stmt 1 view .LVU144
  73:Core/Src/Drivers/State_Estimator/state_estimator.c ****   if(htim->Instance == TIM7)
 487              		.loc 1 73 14 is_stmt 0 view .LVU145
 488 0004 0023     		movs	r3, #0
 489 0006 0193     		str	r3, [sp, #4]
  74:Core/Src/Drivers/State_Estimator/state_estimator.c ****   {
 490              		.loc 1 74 3 is_stmt 1 view .LVU146
  74:Core/Src/Drivers/State_Estimator/state_estimator.c ****   {
 491              		.loc 1 74 10 is_stmt 0 view .LVU147
 492 0008 0268     		ldr	r2, [r0]
  74:Core/Src/Drivers/State_Estimator/state_estimator.c ****   {
 493              		.loc 1 74 5 view .LVU148
 494 000a 0D4B     		ldr	r3, .L30
 495 000c 9A42     		cmp	r2, r3
 496 000e 0ED0     		beq	.L29
 497              	.LVL24:
 498              	.L26:
  80:Core/Src/Drivers/State_Estimator/state_estimator.c **** }
 499              		.loc 1 80 3 is_stmt 1 view .LVU149
  80:Core/Src/Drivers/State_Estimator/state_estimator.c **** }
 500              		.loc 1 80 3 view .LVU150
ARM GAS  C:\Users\ACER\AppData\Local\Temp\ccBXTuQe.s 			page 14


 501 0010 019B     		ldr	r3, [sp, #4]
 502 0012 4BB1     		cbz	r3, .L25
  80:Core/Src/Drivers/State_Estimator/state_estimator.c **** }
 503              		.loc 1 80 3 discriminator 1 view .LVU151
 504 0014 4FF0E023 		mov	r3, #-536813568
 505 0018 4FF08052 		mov	r2, #268435456
 506 001c C3F8042D 		str	r2, [r3, #3332]
  80:Core/Src/Drivers/State_Estimator/state_estimator.c **** }
 507              		.loc 1 80 3 discriminator 1 view .LVU152
 508              		.syntax unified
 509              	@ 80 "Core/Src/Drivers/State_Estimator/state_estimator.c" 1
 510 0020 BFF34F8F 		dsb
 511              	@ 0 "" 2
  80:Core/Src/Drivers/State_Estimator/state_estimator.c **** }
 512              		.loc 1 80 3 discriminator 1 view .LVU153
 513              	@ 80 "Core/Src/Drivers/State_Estimator/state_estimator.c" 1
 514 0024 BFF36F8F 		isb
 515              	@ 0 "" 2
  80:Core/Src/Drivers/State_Estimator/state_estimator.c **** }
 516              		.loc 1 80 3 discriminator 3 view .LVU154
  80:Core/Src/Drivers/State_Estimator/state_estimator.c **** }
 517              		.loc 1 80 3 discriminator 3 view .LVU155
 518              		.thumb
 519              		.syntax unified
 520              	.L25:
  81:Core/Src/Drivers/State_Estimator/state_estimator.c **** 
 521              		.loc 1 81 1 is_stmt 0 view .LVU156
 522 0028 03B0     		add	sp, sp, #12
 523              	.LCFI13:
 524              		.cfi_remember_state
 525              		.cfi_def_cfa_offset 4
 526              		@ sp needed
 527 002a 5DF804FB 		ldr	pc, [sp], #4
 528              	.LVL25:
 529              	.L29:
 530              	.LCFI14:
 531              		.cfi_restore_state
 532              	.LBB2:
  76:Core/Src/Drivers/State_Estimator/state_estimator.c ****     ao_estimator->postFromISR(ao_estimator, &time_evt, &xHigherPriorityTaskWoken);
 533              		.loc 1 76 5 is_stmt 1 view .LVU157
  77:Core/Src/Drivers/State_Estimator/state_estimator.c ****   }
 534              		.loc 1 77 5 view .LVU158
  77:Core/Src/Drivers/State_Estimator/state_estimator.c ****   }
 535              		.loc 1 77 17 is_stmt 0 view .LVU159
 536 002e 054B     		ldr	r3, .L30+4
 537 0030 1868     		ldr	r0, [r3]
 538              	.LVL26:
  77:Core/Src/Drivers/State_Estimator/state_estimator.c ****   }
 539              		.loc 1 77 17 view .LVU160
 540 0032 D0F8C430 		ldr	r3, [r0, #196]
  77:Core/Src/Drivers/State_Estimator/state_estimator.c ****   }
 541              		.loc 1 77 5 view .LVU161
 542 0036 01AA     		add	r2, sp, #4
 543 0038 0349     		ldr	r1, .L30+8
 544 003a 9847     		blx	r3
 545              	.LVL27:
 546 003c E8E7     		b	.L26
ARM GAS  C:\Users\ACER\AppData\Local\Temp\ccBXTuQe.s 			page 15


 547              	.L31:
 548 003e 00BF     		.align	2
 549              	.L30:
 550 0040 00140040 		.word	1073746944
 551 0044 00000000 		.word	ao_estimator
 552 0048 00000000 		.word	time_evt.0
 553              	.LBE2:
 554              		.cfi_endproc
 555              	.LFE171:
 557              		.section	.text.HAL_TIM_IC_CaptureCallback,"ax",%progbits
 558              		.align	1
 559              		.global	HAL_TIM_IC_CaptureCallback
 560              		.syntax unified
 561              		.thumb
 562              		.thumb_func
 564              	HAL_TIM_IC_CaptureCallback:
 565              	.LVL28:
 566              	.LFB172:
  89:Core/Src/Drivers/State_Estimator/state_estimator.c ****   if(htim->Instance == TIM4)
 567              		.loc 1 89 1 is_stmt 1 view -0
 568              		.cfi_startproc
 569              		@ args = 0, pretend = 0, frame = 0
 570              		@ frame_needed = 0, uses_anonymous_args = 0
 571              		@ link register save eliminated.
  90:Core/Src/Drivers/State_Estimator/state_estimator.c ****   {
 572              		.loc 1 90 3 view .LVU163
  90:Core/Src/Drivers/State_Estimator/state_estimator.c ****   {
 573              		.loc 1 90 10 is_stmt 0 view .LVU164
 574 0000 0368     		ldr	r3, [r0]
  90:Core/Src/Drivers/State_Estimator/state_estimator.c ****   {
 575              		.loc 1 90 5 view .LVU165
 576 0002 074A     		ldr	r2, .L37
 577 0004 9342     		cmp	r3, r2
 578 0006 03D0     		beq	.L35
  95:Core/Src/Drivers/State_Estimator/state_estimator.c ****   {
 579              		.loc 1 95 8 is_stmt 1 view .LVU166
  95:Core/Src/Drivers/State_Estimator/state_estimator.c ****   {
 580              		.loc 1 95 10 is_stmt 0 view .LVU167
 581 0008 064A     		ldr	r2, .L37+4
 582 000a 9342     		cmp	r3, r2
 583 000c 04D0     		beq	.L36
 584              	.L32:
 100:Core/Src/Drivers/State_Estimator/state_estimator.c **** 
 585              		.loc 1 100 1 view .LVU168
 586 000e 7047     		bx	lr
 587              	.L35:
  93:Core/Src/Drivers/State_Estimator/state_estimator.c ****   }
 588              		.loc 1 93 5 is_stmt 1 view .LVU169
  93:Core/Src/Drivers/State_Estimator/state_estimator.c ****   }
 589              		.loc 1 93 41 is_stmt 0 view .LVU170
 590 0010 5A6A     		ldr	r2, [r3, #36]
  93:Core/Src/Drivers/State_Estimator/state_estimator.c ****   }
 591              		.loc 1 93 19 view .LVU171
 592 0012 054B     		ldr	r3, .L37+8
 593 0014 1A80     		strh	r2, [r3]	@ movhi
 594 0016 7047     		bx	lr
 595              	.L36:
ARM GAS  C:\Users\ACER\AppData\Local\Temp\ccBXTuQe.s 			page 16


  98:Core/Src/Drivers/State_Estimator/state_estimator.c ****   }
 596              		.loc 1 98 5 is_stmt 1 view .LVU172
  98:Core/Src/Drivers/State_Estimator/state_estimator.c ****   }
 597              		.loc 1 98 42 is_stmt 0 view .LVU173
 598 0018 5A6A     		ldr	r2, [r3, #36]
  98:Core/Src/Drivers/State_Estimator/state_estimator.c ****   }
 599              		.loc 1 98 20 view .LVU174
 600 001a 044B     		ldr	r3, .L37+12
 601 001c 1A80     		strh	r2, [r3]	@ movhi
 100:Core/Src/Drivers/State_Estimator/state_estimator.c **** 
 602              		.loc 1 100 1 view .LVU175
 603 001e F6E7     		b	.L32
 604              	.L38:
 605              		.align	2
 606              	.L37:
 607 0020 00080040 		.word	1073743872
 608 0024 00040040 		.word	1073742848
 609 0028 00000000 		.word	motor_counter
 610 002c 00000000 		.word	pendlm_counter
 611              		.cfi_endproc
 612              	.LFE172:
 614              		.section	.text.TIM3_IRQHandler,"ax",%progbits
 615              		.align	1
 616              		.global	TIM3_IRQHandler
 617              		.syntax unified
 618              		.thumb
 619              		.thumb_func
 621              	TIM3_IRQHandler:
 622              	.LFB173:
 106:Core/Src/Drivers/State_Estimator/state_estimator.c ****   HAL_TIM_IRQHandler(&htim3);
 623              		.loc 1 106 1 is_stmt 1 view -0
 624              		.cfi_startproc
 625              		@ args = 0, pretend = 0, frame = 0
 626              		@ frame_needed = 0, uses_anonymous_args = 0
 627 0000 08B5     		push	{r3, lr}
 628              	.LCFI15:
 629              		.cfi_def_cfa_offset 8
 630              		.cfi_offset 3, -8
 631              		.cfi_offset 14, -4
 107:Core/Src/Drivers/State_Estimator/state_estimator.c **** }
 632              		.loc 1 107 3 view .LVU177
 633 0002 0248     		ldr	r0, .L41
 634 0004 FFF7FEFF 		bl	HAL_TIM_IRQHandler
 635              	.LVL29:
 108:Core/Src/Drivers/State_Estimator/state_estimator.c **** 
 636              		.loc 1 108 1 is_stmt 0 view .LVU178
 637 0008 08BD     		pop	{r3, pc}
 638              	.L42:
 639 000a 00BF     		.align	2
 640              	.L41:
 641 000c 00000000 		.word	htim3
 642              		.cfi_endproc
 643              	.LFE173:
 645              		.section	.text.TIM4_IRQHandler,"ax",%progbits
 646              		.align	1
 647              		.global	TIM4_IRQHandler
 648              		.syntax unified
ARM GAS  C:\Users\ACER\AppData\Local\Temp\ccBXTuQe.s 			page 17


 649              		.thumb
 650              		.thumb_func
 652              	TIM4_IRQHandler:
 653              	.LFB174:
 114:Core/Src/Drivers/State_Estimator/state_estimator.c ****   HAL_TIM_IRQHandler(&htim4);
 654              		.loc 1 114 1 is_stmt 1 view -0
 655              		.cfi_startproc
 656              		@ args = 0, pretend = 0, frame = 0
 657              		@ frame_needed = 0, uses_anonymous_args = 0
 658 0000 08B5     		push	{r3, lr}
 659              	.LCFI16:
 660              		.cfi_def_cfa_offset 8
 661              		.cfi_offset 3, -8
 662              		.cfi_offset 14, -4
 115:Core/Src/Drivers/State_Estimator/state_estimator.c **** }
 663              		.loc 1 115 3 view .LVU180
 664 0002 0248     		ldr	r0, .L45
 665 0004 FFF7FEFF 		bl	HAL_TIM_IRQHandler
 666              	.LVL30:
 116:Core/Src/Drivers/State_Estimator/state_estimator.c **** 
 667              		.loc 1 116 1 is_stmt 0 view .LVU181
 668 0008 08BD     		pop	{r3, pc}
 669              	.L46:
 670 000a 00BF     		.align	2
 671              	.L45:
 672 000c 00000000 		.word	htim4
 673              		.cfi_endproc
 674              	.LFE174:
 676              		.section	.text.TIM7_IRQHandler,"ax",%progbits
 677              		.align	1
 678              		.global	TIM7_IRQHandler
 679              		.syntax unified
 680              		.thumb
 681              		.thumb_func
 683              	TIM7_IRQHandler:
 684              	.LFB175:
 122:Core/Src/Drivers/State_Estimator/state_estimator.c ****   HAL_TIM_IRQHandler(&htim7);
 685              		.loc 1 122 1 is_stmt 1 view -0
 686              		.cfi_startproc
 687              		@ args = 0, pretend = 0, frame = 0
 688              		@ frame_needed = 0, uses_anonymous_args = 0
 689 0000 08B5     		push	{r3, lr}
 690              	.LCFI17:
 691              		.cfi_def_cfa_offset 8
 692              		.cfi_offset 3, -8
 693              		.cfi_offset 14, -4
 123:Core/Src/Drivers/State_Estimator/state_estimator.c **** }
 694              		.loc 1 123 3 view .LVU183
 695 0002 0248     		ldr	r0, .L49
 696 0004 FFF7FEFF 		bl	HAL_TIM_IRQHandler
 697              	.LVL31:
 124:Core/Src/Drivers/State_Estimator/state_estimator.c **** 
 698              		.loc 1 124 1 is_stmt 0 view .LVU184
 699 0008 08BD     		pop	{r3, pc}
 700              	.L50:
 701 000a 00BF     		.align	2
 702              	.L49:
ARM GAS  C:\Users\ACER\AppData\Local\Temp\ccBXTuQe.s 			page 18


 703 000c 00000000 		.word	htim7
 704              		.cfi_endproc
 705              	.LFE175:
 707              		.section	.text.Driver_StateEstimator_Init,"ax",%progbits
 708              		.align	1
 709              		.global	Driver_StateEstimator_Init
 710              		.syntax unified
 711              		.thumb
 712              		.thumb_func
 714              	Driver_StateEstimator_Init:
 715              	.LFB176:
 130:Core/Src/Drivers/State_Estimator/state_estimator.c ****   MX_TIM3_Init(); // Motor encoder
 716              		.loc 1 130 1 is_stmt 1 view -0
 717              		.cfi_startproc
 718              		@ args = 0, pretend = 0, frame = 0
 719              		@ frame_needed = 0, uses_anonymous_args = 0
 720 0000 08B5     		push	{r3, lr}
 721              	.LCFI18:
 722              		.cfi_def_cfa_offset 8
 723              		.cfi_offset 3, -8
 724              		.cfi_offset 14, -4
 131:Core/Src/Drivers/State_Estimator/state_estimator.c ****   MX_TIM4_Init(); // Pendullum encoder
 725              		.loc 1 131 3 view .LVU186
 726 0002 FFF7FEFF 		bl	MX_TIM3_Init
 727              	.LVL32:
 132:Core/Src/Drivers/State_Estimator/state_estimator.c ****   MX_TIM7_Init(); // Basic timer for generating periodic task running at 2kHz
 728              		.loc 1 132 3 view .LVU187
 729 0006 FFF7FEFF 		bl	MX_TIM4_Init
 730              	.LVL33:
 133:Core/Src/Drivers/State_Estimator/state_estimator.c **** 
 731              		.loc 1 133 3 view .LVU188
 732 000a FFF7FEFF 		bl	MX_TIM7_Init
 733              	.LVL34:
 138:Core/Src/Drivers/State_Estimator/state_estimator.c **** 
 734              		.loc 1 138 1 is_stmt 0 view .LVU189
 735 000e 08BD     		pop	{r3, pc}
 736              		.cfi_endproc
 737              	.LFE176:
 739              		.section	.text.HAL_TIM_Encoder_MspInit,"ax",%progbits
 740              		.align	1
 741              		.global	HAL_TIM_Encoder_MspInit
 742              		.syntax unified
 743              		.thumb
 744              		.thumb_func
 746              	HAL_TIM_Encoder_MspInit:
 747              	.LVL35:
 748              	.LFB180:
 243:Core/Src/Drivers/State_Estimator/state_estimator.c **** 
 244:Core/Src/Drivers/State_Estimator/state_estimator.c **** /**
 245:Core/Src/Drivers/State_Estimator/state_estimator.c **** * @brief TIM_Encoder MSP Initialization
 246:Core/Src/Drivers/State_Estimator/state_estimator.c **** * This function configures the hardware resources used in this example
 247:Core/Src/Drivers/State_Estimator/state_estimator.c **** * @param htim_encoder: TIM_Encoder handle pointer
 248:Core/Src/Drivers/State_Estimator/state_estimator.c **** * @retval None
 249:Core/Src/Drivers/State_Estimator/state_estimator.c **** */
 250:Core/Src/Drivers/State_Estimator/state_estimator.c **** void HAL_TIM_Encoder_MspInit(TIM_HandleTypeDef* htim_encoder)
 251:Core/Src/Drivers/State_Estimator/state_estimator.c **** {
 749              		.loc 1 251 1 is_stmt 1 view -0
ARM GAS  C:\Users\ACER\AppData\Local\Temp\ccBXTuQe.s 			page 19


 750              		.cfi_startproc
 751              		@ args = 0, pretend = 0, frame = 40
 752              		@ frame_needed = 0, uses_anonymous_args = 0
 753              		.loc 1 251 1 is_stmt 0 view .LVU191
 754 0000 10B5     		push	{r4, lr}
 755              	.LCFI19:
 756              		.cfi_def_cfa_offset 8
 757              		.cfi_offset 4, -8
 758              		.cfi_offset 14, -4
 759 0002 8AB0     		sub	sp, sp, #40
 760              	.LCFI20:
 761              		.cfi_def_cfa_offset 48
 252:Core/Src/Drivers/State_Estimator/state_estimator.c ****   GPIO_InitTypeDef GPIO_InitStruct = {0};
 762              		.loc 1 252 3 is_stmt 1 view .LVU192
 763              		.loc 1 252 20 is_stmt 0 view .LVU193
 764 0004 0023     		movs	r3, #0
 765 0006 0593     		str	r3, [sp, #20]
 766 0008 0693     		str	r3, [sp, #24]
 767 000a 0793     		str	r3, [sp, #28]
 768 000c 0893     		str	r3, [sp, #32]
 769 000e 0993     		str	r3, [sp, #36]
 253:Core/Src/Drivers/State_Estimator/state_estimator.c ****   if(htim_encoder->Instance==TIM3)
 770              		.loc 1 253 3 is_stmt 1 view .LVU194
 771              		.loc 1 253 18 is_stmt 0 view .LVU195
 772 0010 0368     		ldr	r3, [r0]
 773              		.loc 1 253 5 view .LVU196
 774 0012 2E4A     		ldr	r2, .L59
 775 0014 9342     		cmp	r3, r2
 776 0016 04D0     		beq	.L57
 254:Core/Src/Drivers/State_Estimator/state_estimator.c ****   {
 255:Core/Src/Drivers/State_Estimator/state_estimator.c ****     /* Peripheral clock enable */
 256:Core/Src/Drivers/State_Estimator/state_estimator.c ****     __HAL_RCC_TIM3_CLK_ENABLE();
 257:Core/Src/Drivers/State_Estimator/state_estimator.c ****     __HAL_RCC_GPIOA_CLK_ENABLE();
 258:Core/Src/Drivers/State_Estimator/state_estimator.c **** 
 259:Core/Src/Drivers/State_Estimator/state_estimator.c ****     /**TIM3 GPIO Configuration
 260:Core/Src/Drivers/State_Estimator/state_estimator.c ****     PA6     ------> TIM3_CH1
 261:Core/Src/Drivers/State_Estimator/state_estimator.c ****     PA7     ------> TIM3_CH2
 262:Core/Src/Drivers/State_Estimator/state_estimator.c ****     */
 263:Core/Src/Drivers/State_Estimator/state_estimator.c ****     GPIO_InitStruct.Pin = GPIO_PIN_6|GPIO_PIN_7;
 264:Core/Src/Drivers/State_Estimator/state_estimator.c ****     GPIO_InitStruct.Mode = GPIO_MODE_AF_PP;
 265:Core/Src/Drivers/State_Estimator/state_estimator.c ****     GPIO_InitStruct.Pull = GPIO_PULLUP;
 266:Core/Src/Drivers/State_Estimator/state_estimator.c ****     GPIO_InitStruct.Speed = GPIO_SPEED_FREQ_LOW;
 267:Core/Src/Drivers/State_Estimator/state_estimator.c ****     GPIO_InitStruct.Alternate = GPIO_AF2_TIM3;
 268:Core/Src/Drivers/State_Estimator/state_estimator.c ****     HAL_GPIO_Init(GPIOA, &GPIO_InitStruct);
 269:Core/Src/Drivers/State_Estimator/state_estimator.c **** 
 270:Core/Src/Drivers/State_Estimator/state_estimator.c ****     /* TIM3 interrupt Init */
 271:Core/Src/Drivers/State_Estimator/state_estimator.c ****     HAL_NVIC_SetPriority(TIM3_IRQn, 7, 0);
 272:Core/Src/Drivers/State_Estimator/state_estimator.c ****     HAL_NVIC_EnableIRQ(TIM3_IRQn);
 273:Core/Src/Drivers/State_Estimator/state_estimator.c ****   }
 274:Core/Src/Drivers/State_Estimator/state_estimator.c ****   else if(htim_encoder->Instance==TIM4)
 777              		.loc 1 274 8 is_stmt 1 view .LVU197
 778              		.loc 1 274 10 is_stmt 0 view .LVU198
 779 0018 2D4A     		ldr	r2, .L59+4
 780 001a 9342     		cmp	r3, r2
 781 001c 2BD0     		beq	.L58
 782              	.LVL36:
 783              	.L53:
ARM GAS  C:\Users\ACER\AppData\Local\Temp\ccBXTuQe.s 			page 20


 275:Core/Src/Drivers/State_Estimator/state_estimator.c ****   {
 276:Core/Src/Drivers/State_Estimator/state_estimator.c ****     /* Peripheral clock enable */
 277:Core/Src/Drivers/State_Estimator/state_estimator.c ****     __HAL_RCC_TIM4_CLK_ENABLE();
 278:Core/Src/Drivers/State_Estimator/state_estimator.c ****     __HAL_RCC_GPIOD_CLK_ENABLE();
 279:Core/Src/Drivers/State_Estimator/state_estimator.c **** 
 280:Core/Src/Drivers/State_Estimator/state_estimator.c ****     /**TIM4 GPIO Configuration
 281:Core/Src/Drivers/State_Estimator/state_estimator.c ****     PD12     ------> TIM4_CH1
 282:Core/Src/Drivers/State_Estimator/state_estimator.c ****     PD13     ------> TIM4_CH2
 283:Core/Src/Drivers/State_Estimator/state_estimator.c ****     */
 284:Core/Src/Drivers/State_Estimator/state_estimator.c ****     GPIO_InitStruct.Pin = GPIO_PIN_12|GPIO_PIN_13;
 285:Core/Src/Drivers/State_Estimator/state_estimator.c ****     GPIO_InitStruct.Mode = GPIO_MODE_AF_PP;
 286:Core/Src/Drivers/State_Estimator/state_estimator.c ****     GPIO_InitStruct.Pull = GPIO_PULLUP;
 287:Core/Src/Drivers/State_Estimator/state_estimator.c ****     GPIO_InitStruct.Speed = GPIO_SPEED_FREQ_LOW;
 288:Core/Src/Drivers/State_Estimator/state_estimator.c ****     GPIO_InitStruct.Alternate = GPIO_AF2_TIM4;
 289:Core/Src/Drivers/State_Estimator/state_estimator.c ****     HAL_GPIO_Init(GPIOD, &GPIO_InitStruct);
 290:Core/Src/Drivers/State_Estimator/state_estimator.c **** 
 291:Core/Src/Drivers/State_Estimator/state_estimator.c ****     /* TIM4 interrupt Init */
 292:Core/Src/Drivers/State_Estimator/state_estimator.c ****     HAL_NVIC_SetPriority(TIM4_IRQn, 7, 0);
 293:Core/Src/Drivers/State_Estimator/state_estimator.c ****     HAL_NVIC_EnableIRQ(TIM4_IRQn);
 294:Core/Src/Drivers/State_Estimator/state_estimator.c ****   }
 295:Core/Src/Drivers/State_Estimator/state_estimator.c **** 
 296:Core/Src/Drivers/State_Estimator/state_estimator.c **** }
 784              		.loc 1 296 1 view .LVU199
 785 001e 0AB0     		add	sp, sp, #40
 786              	.LCFI21:
 787              		.cfi_remember_state
 788              		.cfi_def_cfa_offset 8
 789              		@ sp needed
 790 0020 10BD     		pop	{r4, pc}
 791              	.LVL37:
 792              	.L57:
 793              	.LCFI22:
 794              		.cfi_restore_state
 256:Core/Src/Drivers/State_Estimator/state_estimator.c ****     __HAL_RCC_GPIOA_CLK_ENABLE();
 795              		.loc 1 256 5 is_stmt 1 view .LVU200
 796              	.LBB3:
 256:Core/Src/Drivers/State_Estimator/state_estimator.c ****     __HAL_RCC_GPIOA_CLK_ENABLE();
 797              		.loc 1 256 5 view .LVU201
 798 0022 0024     		movs	r4, #0
 799 0024 0194     		str	r4, [sp, #4]
 256:Core/Src/Drivers/State_Estimator/state_estimator.c ****     __HAL_RCC_GPIOA_CLK_ENABLE();
 800              		.loc 1 256 5 view .LVU202
 801 0026 2B4B     		ldr	r3, .L59+8
 802 0028 1A6C     		ldr	r2, [r3, #64]
 803 002a 42F00202 		orr	r2, r2, #2
 804 002e 1A64     		str	r2, [r3, #64]
 256:Core/Src/Drivers/State_Estimator/state_estimator.c ****     __HAL_RCC_GPIOA_CLK_ENABLE();
 805              		.loc 1 256 5 view .LVU203
 806 0030 1A6C     		ldr	r2, [r3, #64]
 807 0032 02F00202 		and	r2, r2, #2
 808 0036 0192     		str	r2, [sp, #4]
 256:Core/Src/Drivers/State_Estimator/state_estimator.c ****     __HAL_RCC_GPIOA_CLK_ENABLE();
 809              		.loc 1 256 5 view .LVU204
 810 0038 019A     		ldr	r2, [sp, #4]
 811              	.LBE3:
 256:Core/Src/Drivers/State_Estimator/state_estimator.c ****     __HAL_RCC_GPIOA_CLK_ENABLE();
 812              		.loc 1 256 5 view .LVU205
ARM GAS  C:\Users\ACER\AppData\Local\Temp\ccBXTuQe.s 			page 21


 257:Core/Src/Drivers/State_Estimator/state_estimator.c **** 
 813              		.loc 1 257 5 view .LVU206
 814              	.LBB4:
 257:Core/Src/Drivers/State_Estimator/state_estimator.c **** 
 815              		.loc 1 257 5 view .LVU207
 816 003a 0294     		str	r4, [sp, #8]
 257:Core/Src/Drivers/State_Estimator/state_estimator.c **** 
 817              		.loc 1 257 5 view .LVU208
 818 003c 1A6B     		ldr	r2, [r3, #48]
 819 003e 42F00102 		orr	r2, r2, #1
 820 0042 1A63     		str	r2, [r3, #48]
 257:Core/Src/Drivers/State_Estimator/state_estimator.c **** 
 821              		.loc 1 257 5 view .LVU209
 822 0044 1B6B     		ldr	r3, [r3, #48]
 823 0046 03F00103 		and	r3, r3, #1
 824 004a 0293     		str	r3, [sp, #8]
 257:Core/Src/Drivers/State_Estimator/state_estimator.c **** 
 825              		.loc 1 257 5 view .LVU210
 826 004c 029B     		ldr	r3, [sp, #8]
 827              	.LBE4:
 257:Core/Src/Drivers/State_Estimator/state_estimator.c **** 
 828              		.loc 1 257 5 view .LVU211
 263:Core/Src/Drivers/State_Estimator/state_estimator.c ****     GPIO_InitStruct.Mode = GPIO_MODE_AF_PP;
 829              		.loc 1 263 5 view .LVU212
 263:Core/Src/Drivers/State_Estimator/state_estimator.c ****     GPIO_InitStruct.Mode = GPIO_MODE_AF_PP;
 830              		.loc 1 263 25 is_stmt 0 view .LVU213
 831 004e C023     		movs	r3, #192
 832 0050 0593     		str	r3, [sp, #20]
 264:Core/Src/Drivers/State_Estimator/state_estimator.c ****     GPIO_InitStruct.Pull = GPIO_PULLUP;
 833              		.loc 1 264 5 is_stmt 1 view .LVU214
 264:Core/Src/Drivers/State_Estimator/state_estimator.c ****     GPIO_InitStruct.Pull = GPIO_PULLUP;
 834              		.loc 1 264 26 is_stmt 0 view .LVU215
 835 0052 0223     		movs	r3, #2
 836 0054 0693     		str	r3, [sp, #24]
 265:Core/Src/Drivers/State_Estimator/state_estimator.c ****     GPIO_InitStruct.Speed = GPIO_SPEED_FREQ_LOW;
 837              		.loc 1 265 5 is_stmt 1 view .LVU216
 265:Core/Src/Drivers/State_Estimator/state_estimator.c ****     GPIO_InitStruct.Speed = GPIO_SPEED_FREQ_LOW;
 838              		.loc 1 265 26 is_stmt 0 view .LVU217
 839 0056 0122     		movs	r2, #1
 840 0058 0792     		str	r2, [sp, #28]
 266:Core/Src/Drivers/State_Estimator/state_estimator.c ****     GPIO_InitStruct.Alternate = GPIO_AF2_TIM3;
 841              		.loc 1 266 5 is_stmt 1 view .LVU218
 267:Core/Src/Drivers/State_Estimator/state_estimator.c ****     HAL_GPIO_Init(GPIOA, &GPIO_InitStruct);
 842              		.loc 1 267 5 view .LVU219
 267:Core/Src/Drivers/State_Estimator/state_estimator.c ****     HAL_GPIO_Init(GPIOA, &GPIO_InitStruct);
 843              		.loc 1 267 31 is_stmt 0 view .LVU220
 844 005a 0993     		str	r3, [sp, #36]
 268:Core/Src/Drivers/State_Estimator/state_estimator.c **** 
 845              		.loc 1 268 5 is_stmt 1 view .LVU221
 846 005c 05A9     		add	r1, sp, #20
 847 005e 1E48     		ldr	r0, .L59+12
 848              	.LVL38:
 268:Core/Src/Drivers/State_Estimator/state_estimator.c **** 
 849              		.loc 1 268 5 is_stmt 0 view .LVU222
 850 0060 FFF7FEFF 		bl	HAL_GPIO_Init
 851              	.LVL39:
 271:Core/Src/Drivers/State_Estimator/state_estimator.c ****     HAL_NVIC_EnableIRQ(TIM3_IRQn);
ARM GAS  C:\Users\ACER\AppData\Local\Temp\ccBXTuQe.s 			page 22


 852              		.loc 1 271 5 is_stmt 1 view .LVU223
 853 0064 2246     		mov	r2, r4
 854 0066 0721     		movs	r1, #7
 855 0068 1D20     		movs	r0, #29
 856 006a FFF7FEFF 		bl	HAL_NVIC_SetPriority
 857              	.LVL40:
 272:Core/Src/Drivers/State_Estimator/state_estimator.c ****   }
 858              		.loc 1 272 5 view .LVU224
 859 006e 1D20     		movs	r0, #29
 860 0070 FFF7FEFF 		bl	HAL_NVIC_EnableIRQ
 861              	.LVL41:
 862 0074 D3E7     		b	.L53
 863              	.LVL42:
 864              	.L58:
 277:Core/Src/Drivers/State_Estimator/state_estimator.c ****     __HAL_RCC_GPIOD_CLK_ENABLE();
 865              		.loc 1 277 5 view .LVU225
 866              	.LBB5:
 277:Core/Src/Drivers/State_Estimator/state_estimator.c ****     __HAL_RCC_GPIOD_CLK_ENABLE();
 867              		.loc 1 277 5 view .LVU226
 868 0076 0024     		movs	r4, #0
 869 0078 0394     		str	r4, [sp, #12]
 277:Core/Src/Drivers/State_Estimator/state_estimator.c ****     __HAL_RCC_GPIOD_CLK_ENABLE();
 870              		.loc 1 277 5 view .LVU227
 871 007a 164B     		ldr	r3, .L59+8
 872 007c 1A6C     		ldr	r2, [r3, #64]
 873 007e 42F00402 		orr	r2, r2, #4
 874 0082 1A64     		str	r2, [r3, #64]
 277:Core/Src/Drivers/State_Estimator/state_estimator.c ****     __HAL_RCC_GPIOD_CLK_ENABLE();
 875              		.loc 1 277 5 view .LVU228
 876 0084 1A6C     		ldr	r2, [r3, #64]
 877 0086 02F00402 		and	r2, r2, #4
 878 008a 0392     		str	r2, [sp, #12]
 277:Core/Src/Drivers/State_Estimator/state_estimator.c ****     __HAL_RCC_GPIOD_CLK_ENABLE();
 879              		.loc 1 277 5 view .LVU229
 880 008c 039A     		ldr	r2, [sp, #12]
 881              	.LBE5:
 277:Core/Src/Drivers/State_Estimator/state_estimator.c ****     __HAL_RCC_GPIOD_CLK_ENABLE();
 882              		.loc 1 277 5 view .LVU230
 278:Core/Src/Drivers/State_Estimator/state_estimator.c **** 
 883              		.loc 1 278 5 view .LVU231
 884              	.LBB6:
 278:Core/Src/Drivers/State_Estimator/state_estimator.c **** 
 885              		.loc 1 278 5 view .LVU232
 886 008e 0494     		str	r4, [sp, #16]
 278:Core/Src/Drivers/State_Estimator/state_estimator.c **** 
 887              		.loc 1 278 5 view .LVU233
 888 0090 1A6B     		ldr	r2, [r3, #48]
 889 0092 42F00802 		orr	r2, r2, #8
 890 0096 1A63     		str	r2, [r3, #48]
 278:Core/Src/Drivers/State_Estimator/state_estimator.c **** 
 891              		.loc 1 278 5 view .LVU234
 892 0098 1B6B     		ldr	r3, [r3, #48]
 893 009a 03F00803 		and	r3, r3, #8
 894 009e 0493     		str	r3, [sp, #16]
 278:Core/Src/Drivers/State_Estimator/state_estimator.c **** 
 895              		.loc 1 278 5 view .LVU235
 896 00a0 049B     		ldr	r3, [sp, #16]
ARM GAS  C:\Users\ACER\AppData\Local\Temp\ccBXTuQe.s 			page 23


 897              	.LBE6:
 278:Core/Src/Drivers/State_Estimator/state_estimator.c **** 
 898              		.loc 1 278 5 view .LVU236
 284:Core/Src/Drivers/State_Estimator/state_estimator.c ****     GPIO_InitStruct.Mode = GPIO_MODE_AF_PP;
 899              		.loc 1 284 5 view .LVU237
 284:Core/Src/Drivers/State_Estimator/state_estimator.c ****     GPIO_InitStruct.Mode = GPIO_MODE_AF_PP;
 900              		.loc 1 284 25 is_stmt 0 view .LVU238
 901 00a2 4FF44053 		mov	r3, #12288
 902 00a6 0593     		str	r3, [sp, #20]
 285:Core/Src/Drivers/State_Estimator/state_estimator.c ****     GPIO_InitStruct.Pull = GPIO_PULLUP;
 903              		.loc 1 285 5 is_stmt 1 view .LVU239
 285:Core/Src/Drivers/State_Estimator/state_estimator.c ****     GPIO_InitStruct.Pull = GPIO_PULLUP;
 904              		.loc 1 285 26 is_stmt 0 view .LVU240
 905 00a8 0223     		movs	r3, #2
 906 00aa 0693     		str	r3, [sp, #24]
 286:Core/Src/Drivers/State_Estimator/state_estimator.c ****     GPIO_InitStruct.Speed = GPIO_SPEED_FREQ_LOW;
 907              		.loc 1 286 5 is_stmt 1 view .LVU241
 286:Core/Src/Drivers/State_Estimator/state_estimator.c ****     GPIO_InitStruct.Speed = GPIO_SPEED_FREQ_LOW;
 908              		.loc 1 286 26 is_stmt 0 view .LVU242
 909 00ac 0122     		movs	r2, #1
 910 00ae 0792     		str	r2, [sp, #28]
 287:Core/Src/Drivers/State_Estimator/state_estimator.c ****     GPIO_InitStruct.Alternate = GPIO_AF2_TIM4;
 911              		.loc 1 287 5 is_stmt 1 view .LVU243
 288:Core/Src/Drivers/State_Estimator/state_estimator.c ****     HAL_GPIO_Init(GPIOD, &GPIO_InitStruct);
 912              		.loc 1 288 5 view .LVU244
 288:Core/Src/Drivers/State_Estimator/state_estimator.c ****     HAL_GPIO_Init(GPIOD, &GPIO_InitStruct);
 913              		.loc 1 288 31 is_stmt 0 view .LVU245
 914 00b0 0993     		str	r3, [sp, #36]
 289:Core/Src/Drivers/State_Estimator/state_estimator.c **** 
 915              		.loc 1 289 5 is_stmt 1 view .LVU246
 916 00b2 05A9     		add	r1, sp, #20
 917 00b4 0948     		ldr	r0, .L59+16
 918              	.LVL43:
 289:Core/Src/Drivers/State_Estimator/state_estimator.c **** 
 919              		.loc 1 289 5 is_stmt 0 view .LVU247
 920 00b6 FFF7FEFF 		bl	HAL_GPIO_Init
 921              	.LVL44:
 292:Core/Src/Drivers/State_Estimator/state_estimator.c ****     HAL_NVIC_EnableIRQ(TIM4_IRQn);
 922              		.loc 1 292 5 is_stmt 1 view .LVU248
 923 00ba 2246     		mov	r2, r4
 924 00bc 0721     		movs	r1, #7
 925 00be 1E20     		movs	r0, #30
 926 00c0 FFF7FEFF 		bl	HAL_NVIC_SetPriority
 927              	.LVL45:
 293:Core/Src/Drivers/State_Estimator/state_estimator.c ****   }
 928              		.loc 1 293 5 view .LVU249
 929 00c4 1E20     		movs	r0, #30
 930 00c6 FFF7FEFF 		bl	HAL_NVIC_EnableIRQ
 931              	.LVL46:
 932              		.loc 1 296 1 is_stmt 0 view .LVU250
 933 00ca A8E7     		b	.L53
 934              	.L60:
 935              		.align	2
 936              	.L59:
 937 00cc 00040040 		.word	1073742848
 938 00d0 00080040 		.word	1073743872
 939 00d4 00380240 		.word	1073887232
ARM GAS  C:\Users\ACER\AppData\Local\Temp\ccBXTuQe.s 			page 24


 940 00d8 00000240 		.word	1073872896
 941 00dc 000C0240 		.word	1073875968
 942              		.cfi_endproc
 943              	.LFE180:
 945              		.section	.text.HAL_TIM_Base_MspInit,"ax",%progbits
 946              		.align	1
 947              		.global	HAL_TIM_Base_MspInit
 948              		.syntax unified
 949              		.thumb
 950              		.thumb_func
 952              	HAL_TIM_Base_MspInit:
 953              	.LVL47:
 954              	.LFB181:
 297:Core/Src/Drivers/State_Estimator/state_estimator.c **** 
 298:Core/Src/Drivers/State_Estimator/state_estimator.c **** /**
 299:Core/Src/Drivers/State_Estimator/state_estimator.c **** * @brief TIM_Base MSP Initialization
 300:Core/Src/Drivers/State_Estimator/state_estimator.c **** * This function configures the hardware resources used in this example
 301:Core/Src/Drivers/State_Estimator/state_estimator.c **** * @param htim_base: TIM_Base handle pointer
 302:Core/Src/Drivers/State_Estimator/state_estimator.c **** * @retval None
 303:Core/Src/Drivers/State_Estimator/state_estimator.c **** */
 304:Core/Src/Drivers/State_Estimator/state_estimator.c **** void HAL_TIM_Base_MspInit(TIM_HandleTypeDef* htim_base)
 305:Core/Src/Drivers/State_Estimator/state_estimator.c **** {
 955              		.loc 1 305 1 is_stmt 1 view -0
 956              		.cfi_startproc
 957              		@ args = 0, pretend = 0, frame = 8
 958              		@ frame_needed = 0, uses_anonymous_args = 0
 306:Core/Src/Drivers/State_Estimator/state_estimator.c ****   if(htim_base->Instance==TIM7)
 959              		.loc 1 306 3 view .LVU252
 960              		.loc 1 306 15 is_stmt 0 view .LVU253
 961 0000 0268     		ldr	r2, [r0]
 962              		.loc 1 306 5 view .LVU254
 963 0002 0E4B     		ldr	r3, .L68
 964 0004 9A42     		cmp	r2, r3
 965 0006 00D0     		beq	.L67
 966 0008 7047     		bx	lr
 967              	.L67:
 305:Core/Src/Drivers/State_Estimator/state_estimator.c ****   if(htim_base->Instance==TIM7)
 968              		.loc 1 305 1 view .LVU255
 969 000a 00B5     		push	{lr}
 970              	.LCFI23:
 971              		.cfi_def_cfa_offset 4
 972              		.cfi_offset 14, -4
 973 000c 83B0     		sub	sp, sp, #12
 974              	.LCFI24:
 975              		.cfi_def_cfa_offset 16
 307:Core/Src/Drivers/State_Estimator/state_estimator.c ****   {
 308:Core/Src/Drivers/State_Estimator/state_estimator.c ****     /* Peripheral clock enable */
 309:Core/Src/Drivers/State_Estimator/state_estimator.c ****     __HAL_RCC_TIM7_CLK_ENABLE();
 976              		.loc 1 309 5 is_stmt 1 view .LVU256
 977              	.LBB7:
 978              		.loc 1 309 5 view .LVU257
 979 000e 0022     		movs	r2, #0
 980 0010 0192     		str	r2, [sp, #4]
 981              		.loc 1 309 5 view .LVU258
 982 0012 03F50933 		add	r3, r3, #140288
 983 0016 196C     		ldr	r1, [r3, #64]
 984 0018 41F02001 		orr	r1, r1, #32
ARM GAS  C:\Users\ACER\AppData\Local\Temp\ccBXTuQe.s 			page 25


 985 001c 1964     		str	r1, [r3, #64]
 986              		.loc 1 309 5 view .LVU259
 987 001e 1B6C     		ldr	r3, [r3, #64]
 988 0020 03F02003 		and	r3, r3, #32
 989 0024 0193     		str	r3, [sp, #4]
 990              		.loc 1 309 5 view .LVU260
 991 0026 019B     		ldr	r3, [sp, #4]
 992              	.LBE7:
 993              		.loc 1 309 5 view .LVU261
 310:Core/Src/Drivers/State_Estimator/state_estimator.c **** 
 311:Core/Src/Drivers/State_Estimator/state_estimator.c ****     /* TIM7 interrupt Init */
 312:Core/Src/Drivers/State_Estimator/state_estimator.c ****     HAL_NVIC_SetPriority(TIM7_IRQn, 8, 0);
 994              		.loc 1 312 5 view .LVU262
 995 0028 0821     		movs	r1, #8
 996 002a 3720     		movs	r0, #55
 997              	.LVL48:
 998              		.loc 1 312 5 is_stmt 0 view .LVU263
 999 002c FFF7FEFF 		bl	HAL_NVIC_SetPriority
 1000              	.LVL49:
 313:Core/Src/Drivers/State_Estimator/state_estimator.c ****     HAL_NVIC_EnableIRQ(TIM7_IRQn);
 1001              		.loc 1 313 5 is_stmt 1 view .LVU264
 1002 0030 3720     		movs	r0, #55
 1003 0032 FFF7FEFF 		bl	HAL_NVIC_EnableIRQ
 1004              	.LVL50:
 314:Core/Src/Drivers/State_Estimator/state_estimator.c ****   }
 315:Core/Src/Drivers/State_Estimator/state_estimator.c **** }...
 1005              		.loc 1 315 1 is_stmt 0 view .LVU265
 1006 0036 03B0     		add	sp, sp, #12
 1007              	.LCFI25:
 1008              		.cfi_def_cfa_offset 4
 1009              		@ sp needed
 1010 0038 5DF804FB 		ldr	pc, [sp], #4
 1011              	.L69:
 1012              		.align	2
 1013              	.L68:
 1014 003c 00140040 		.word	1073746944
 1015              		.cfi_endproc
 1016              	.LFE181:
 1018              		.section	.rodata.time_evt.0,"a"
 1019              		.align	2
 1022              	time_evt.0:
 1023 0000 0300     		.short	3
 1024              		.global	StateEstimator
 1025              		.section	.rodata.StateEstimator,"a"
 1026              		.align	2
 1029              	StateEstimator:
 1030 0000 00000000 		.word	new
 1031              		.section	.bss.ao_estimator,"aw",%nobits
 1032              		.align	2
 1035              	ao_estimator:
 1036 0000 00000000 		.space	4
 1037              		.section	.bss.motor_counter,"aw",%nobits
 1038              		.align	1
 1041              	motor_counter:
 1042 0000 0000     		.space	2
 1043              		.section	.bss.pendlm_counter,"aw",%nobits
 1044              		.align	1
ARM GAS  C:\Users\ACER\AppData\Local\Temp\ccBXTuQe.s 			page 26


 1047              	pendlm_counter:
 1048 0000 0000     		.space	2
 1049              		.global	htim7
 1050              		.section	.bss.htim7,"aw",%nobits
 1051              		.align	2
 1054              	htim7:
 1055 0000 00000000 		.space	72
 1055      00000000 
 1055      00000000 
 1055      00000000 
 1055      00000000 
 1056              		.global	htim4
 1057              		.section	.bss.htim4,"aw",%nobits
 1058              		.align	2
 1061              	htim4:
 1062 0000 00000000 		.space	72
 1062      00000000 
 1062      00000000 
 1062      00000000 
 1062      00000000 
 1063              		.global	htim3
 1064              		.section	.bss.htim3,"aw",%nobits
 1065              		.align	2
 1068              	htim3:
 1069 0000 00000000 		.space	72
 1069      00000000 
 1069      00000000 
 1069      00000000 
 1069      00000000 
 1070              		.text
 1071              	.Letext0:
 1072              		.file 2 "Drivers/CMSIS/Device/ST/STM32F4xx/Include/stm32f407xx.h"
 1073              		.file 3 "D:/Software/Arm Toolchain/arm-gnu-toolchain-13.2.rel1-mingw-w64-i686-arm-none-eabi/arm-gn
 1074              		.file 4 "D:/Software/Arm Toolchain/arm-gnu-toolchain-13.2.rel1-mingw-w64-i686-arm-none-eabi/arm-gn
 1075              		.file 5 "Drivers/STM32F4xx_HAL_Driver/Inc/stm32f4xx_hal_def.h"
 1076              		.file 6 "Drivers/STM32F4xx_HAL_Driver/Inc/stm32f4xx_hal_gpio.h"
 1077              		.file 7 "Drivers/STM32F4xx_HAL_Driver/Inc/stm32f4xx_hal_dma.h"
 1078              		.file 8 "Drivers/STM32F4xx_HAL_Driver/Inc/stm32f4xx_hal_tim.h"
 1079              		.file 9 "ThirdParty/FreeRTOS/portable/GCC/ARM_CM4F/portmacro.h"
 1080              		.file 10 "ThirdParty/FreeRTOS/include/FreeRTOS.h"
 1081              		.file 11 "ThirdParty/FreeRTOS/include/task.h"
 1082              		.file 12 "ThirdParty/FreeRTOS/include/queue.h"
 1083              		.file 13 "Core/Src/Middleware/Active_Object/active_object.h"
 1084              		.file 14 "Core/Src/Drivers/State_Estimator/state_estimator.h"
 1085              		.file 15 "Drivers/STM32F4xx_HAL_Driver/Inc/stm32f4xx_hal_cortex.h"
 1086              		.file 16 "Drivers/STM32F4xx_HAL_Driver/Inc/stm32f4xx_hal_tim_ex.h"
 1087              		.file 17 "<built-in>"
ARM GAS  C:\Users\ACER\AppData\Local\Temp\ccBXTuQe.s 			page 27


DEFINED SYMBOLS
                            *ABS*:00000000 state_estimator.c
C:\Users\ACER\AppData\Local\Temp\ccBXTuQe.s:21     .text.initial:00000000 $t
C:\Users\ACER\AppData\Local\Temp\ccBXTuQe.s:27     .text.initial:00000000 initial
C:\Users\ACER\AppData\Local\Temp\ccBXTuQe.s:52     .text.wait:00000000 $t
C:\Users\ACER\AppData\Local\Temp\ccBXTuQe.s:58     .text.wait:00000000 wait
C:\Users\ACER\AppData\Local\Temp\ccBXTuQe.s:121    .text.wait:00000030 $d
C:\Users\ACER\AppData\Local\Temp\ccBXTuQe.s:1054   .bss.htim7:00000000 htim7
C:\Users\ACER\AppData\Local\Temp\ccBXTuQe.s:1068   .bss.htim3:00000000 htim3
C:\Users\ACER\AppData\Local\Temp\ccBXTuQe.s:1061   .bss.htim4:00000000 htim4
C:\Users\ACER\AppData\Local\Temp\ccBXTuQe.s:128    .text.new:00000000 $t
C:\Users\ACER\AppData\Local\Temp\ccBXTuQe.s:133    .text.new:00000000 new
C:\Users\ACER\AppData\Local\Temp\ccBXTuQe.s:169    .text.new:0000001c $d
C:\Users\ACER\AppData\Local\Temp\ccBXTuQe.s:1035   .bss.ao_estimator:00000000 ao_estimator
C:\Users\ACER\AppData\Local\Temp\ccBXTuQe.s:176    .text.MX_TIM3_Init:00000000 $t
C:\Users\ACER\AppData\Local\Temp\ccBXTuQe.s:181    .text.MX_TIM3_Init:00000000 MX_TIM3_Init
C:\Users\ACER\AppData\Local\Temp\ccBXTuQe.s:275    .text.MX_TIM3_Init:0000004c $d
C:\Users\ACER\AppData\Local\Temp\ccBXTuQe.s:281    .text.MX_TIM4_Init:00000000 $t
C:\Users\ACER\AppData\Local\Temp\ccBXTuQe.s:286    .text.MX_TIM4_Init:00000000 MX_TIM4_Init
C:\Users\ACER\AppData\Local\Temp\ccBXTuQe.s:380    .text.MX_TIM4_Init:0000004c $d
C:\Users\ACER\AppData\Local\Temp\ccBXTuQe.s:386    .text.MX_TIM7_Init:00000000 $t
C:\Users\ACER\AppData\Local\Temp\ccBXTuQe.s:391    .text.MX_TIM7_Init:00000000 MX_TIM7_Init
C:\Users\ACER\AppData\Local\Temp\ccBXTuQe.s:459    .text.MX_TIM7_Init:00000038 $d
C:\Users\ACER\AppData\Local\Temp\ccBXTuQe.s:465    .text.HAL_TIM_PeriodElapsedCallback:00000000 $t
C:\Users\ACER\AppData\Local\Temp\ccBXTuQe.s:471    .text.HAL_TIM_PeriodElapsedCallback:00000000 HAL_TIM_PeriodElapsedCallback
C:\Users\ACER\AppData\Local\Temp\ccBXTuQe.s:550    .text.HAL_TIM_PeriodElapsedCallback:00000040 $d
C:\Users\ACER\AppData\Local\Temp\ccBXTuQe.s:1022   .rodata.time_evt.0:00000000 time_evt.0
C:\Users\ACER\AppData\Local\Temp\ccBXTuQe.s:558    .text.HAL_TIM_IC_CaptureCallback:00000000 $t
C:\Users\ACER\AppData\Local\Temp\ccBXTuQe.s:564    .text.HAL_TIM_IC_CaptureCallback:00000000 HAL_TIM_IC_CaptureCallback
C:\Users\ACER\AppData\Local\Temp\ccBXTuQe.s:607    .text.HAL_TIM_IC_CaptureCallback:00000020 $d
C:\Users\ACER\AppData\Local\Temp\ccBXTuQe.s:1041   .bss.motor_counter:00000000 motor_counter
C:\Users\ACER\AppData\Local\Temp\ccBXTuQe.s:1047   .bss.pendlm_counter:00000000 pendlm_counter
C:\Users\ACER\AppData\Local\Temp\ccBXTuQe.s:615    .text.TIM3_IRQHandler:00000000 $t
C:\Users\ACER\AppData\Local\Temp\ccBXTuQe.s:621    .text.TIM3_IRQHandler:00000000 TIM3_IRQHandler
C:\Users\ACER\AppData\Local\Temp\ccBXTuQe.s:641    .text.TIM3_IRQHandler:0000000c $d
C:\Users\ACER\AppData\Local\Temp\ccBXTuQe.s:646    .text.TIM4_IRQHandler:00000000 $t
C:\Users\ACER\AppData\Local\Temp\ccBXTuQe.s:652    .text.TIM4_IRQHandler:00000000 TIM4_IRQHandler
C:\Users\ACER\AppData\Local\Temp\ccBXTuQe.s:672    .text.TIM4_IRQHandler:0000000c $d
C:\Users\ACER\AppData\Local\Temp\ccBXTuQe.s:677    .text.TIM7_IRQHandler:00000000 $t
C:\Users\ACER\AppData\Local\Temp\ccBXTuQe.s:683    .text.TIM7_IRQHandler:00000000 TIM7_IRQHandler
C:\Users\ACER\AppData\Local\Temp\ccBXTuQe.s:703    .text.TIM7_IRQHandler:0000000c $d
C:\Users\ACER\AppData\Local\Temp\ccBXTuQe.s:708    .text.Driver_StateEstimator_Init:00000000 $t
C:\Users\ACER\AppData\Local\Temp\ccBXTuQe.s:714    .text.Driver_StateEstimator_Init:00000000 Driver_StateEstimator_Init
C:\Users\ACER\AppData\Local\Temp\ccBXTuQe.s:740    .text.HAL_TIM_Encoder_MspInit:00000000 $t
C:\Users\ACER\AppData\Local\Temp\ccBXTuQe.s:746    .text.HAL_TIM_Encoder_MspInit:00000000 HAL_TIM_Encoder_MspInit
C:\Users\ACER\AppData\Local\Temp\ccBXTuQe.s:937    .text.HAL_TIM_Encoder_MspInit:000000cc $d
C:\Users\ACER\AppData\Local\Temp\ccBXTuQe.s:946    .text.HAL_TIM_Base_MspInit:00000000 $t
C:\Users\ACER\AppData\Local\Temp\ccBXTuQe.s:952    .text.HAL_TIM_Base_MspInit:00000000 HAL_TIM_Base_MspInit
C:\Users\ACER\AppData\Local\Temp\ccBXTuQe.s:1014   .text.HAL_TIM_Base_MspInit:0000003c $d
C:\Users\ACER\AppData\Local\Temp\ccBXTuQe.s:1019   .rodata.time_evt.0:00000000 $d
C:\Users\ACER\AppData\Local\Temp\ccBXTuQe.s:1029   .rodata.StateEstimator:00000000 StateEstimator
C:\Users\ACER\AppData\Local\Temp\ccBXTuQe.s:1026   .rodata.StateEstimator:00000000 $d
C:\Users\ACER\AppData\Local\Temp\ccBXTuQe.s:1032   .bss.ao_estimator:00000000 $d
C:\Users\ACER\AppData\Local\Temp\ccBXTuQe.s:1038   .bss.motor_counter:00000000 $d
C:\Users\ACER\AppData\Local\Temp\ccBXTuQe.s:1044   .bss.pendlm_counter:00000000 $d
C:\Users\ACER\AppData\Local\Temp\ccBXTuQe.s:1051   .bss.htim7:00000000 $d
C:\Users\ACER\AppData\Local\Temp\ccBXTuQe.s:1058   .bss.htim4:00000000 $d
ARM GAS  C:\Users\ACER\AppData\Local\Temp\ccBXTuQe.s 			page 28


C:\Users\ACER\AppData\Local\Temp\ccBXTuQe.s:1065   .bss.htim3:00000000 $d

UNDEFINED SYMBOLS
HAL_TIM_Base_Start_IT
HAL_TIM_Encoder_Start_IT
Ao_new
memset
HAL_TIM_Encoder_Init
HAL_TIMEx_MasterConfigSynchronization
HAL_TIM_Base_Init
HAL_TIM_IRQHandler
HAL_GPIO_Init
HAL_NVIC_SetPriority
HAL_NVIC_EnableIRQ
